
kernel:     file format elf32-tradlittlemips

Disassembly of section .text:

a0800200 <_start>:
a0800200:	27bdffe8 	addiu	sp,sp,-24
a0800204:	afbf0010 	sw	ra,16(sp)
a0800208:	0c200354 	jal	a0800d50 <asm_start>
a080020c:	00000000 	nop
a0800210:	00002821 	move	a1,zero
a0800214:	24060050 	li	a2,80
a0800218:	2407001e 	li	a3,30
a080021c:	0c200b8f 	jal	a0802e3c <clear_screen>
a0800220:	00002021 	move	a0,zero
a0800224:	3c04a080 	lui	a0,0xa080
a0800228:	0c200bfc 	jal	a0802ff0 <queue_init>
a080022c:	24843b18 	addiu	a0,a0,15128
a0800230:	3c04a080 	lui	a0,0xa080
a0800234:	0c200bfc 	jal	a0802ff0 <queue_init>
a0800238:	24843b24 	addiu	a0,a0,15140
a080023c:	3c03a080 	lui	v1,0xa080
a0800240:	3c02a081 	lui	v0,0xa081
a0800244:	24633b38 	addiu	v1,v1,15160
a0800248:	3c04a080 	lui	a0,0xa080
a080024c:	2442c718 	addiu	v0,v0,-14568
a0800250:	ac833b20 	sw	v1,15136(a0)
a0800254:	24420150 	addiu	v0,v0,336
a0800258:	24040003 	li	a0,3
a080025c:	2403001f 	li	v1,31
a0800260:	2463ffff 	addiu	v1,v1,-1
a0800264:	ac440000 	sw	a0,0(v0)
a0800268:	0461fffd 	bgez	v1,a0800260 <_start+0x60>
a080026c:	24420168 	addiu	v0,v0,360
a0800270:	3c06a081 	lui	a2,0xa081
a0800274:	24c4c6d0 	addiu	a0,a2,-14640
a0800278:	3c02a080 	lui	v0,0xa080
a080027c:	2442059c 	addiu	v0,v0,1436
a0800280:	00802821 	move	a1,a0
a0800284:	24030010 	li	v1,16
a0800288:	2463ffff 	addiu	v1,v1,-1
a080028c:	aca20000 	sw	v0,0(a1)
a0800290:	0461fffd 	bgez	v1,a0800288 <_start+0x88>
a0800294:	24a50004 	addiu	a1,a1,4
a0800298:	3c02a080 	lui	v0,0xa080
a080029c:	244226a4 	addiu	v0,v0,9892
a08002a0:	acc2c6d0 	sw	v0,-14640(a2)
a08002a4:	3c03a080 	lui	v1,0xa080
a08002a8:	3c02a080 	lui	v0,0xa080
a08002ac:	24632920 	addiu	v1,v1,10528
a08002b0:	244226c8 	addiu	v0,v0,9928
a08002b4:	ac830040 	sw	v1,64(a0)
a08002b8:	ac820004 	sw	v0,4(a0)
a08002bc:	3c03a080 	lui	v1,0xa080
a08002c0:	3c02a080 	lui	v0,0xa080
a08002c4:	2463285c 	addiu	v1,v1,10332
a08002c8:	244228a4 	addiu	v0,v0,10404
a08002cc:	ac830008 	sw	v1,8(a0)
a08002d0:	ac82000c 	sw	v0,12(a0)
a08002d4:	3c03a080 	lui	v1,0xa080
a08002d8:	3c02a080 	lui	v0,0xa080
a08002dc:	246328d8 	addiu	v1,v1,10456
a08002e0:	2442252c 	addiu	v0,v0,9516
a08002e4:	ac830010 	sw	v1,16(a0)
a08002e8:	ac820014 	sw	v0,20(a0)
a08002ec:	3c03a080 	lui	v1,0xa080
a08002f0:	3c02a080 	lui	v0,0xa080
a08002f4:	24630718 	addiu	v1,v1,1816
a08002f8:	2442079c 	addiu	v0,v0,1948
a08002fc:	ac830018 	sw	v1,24(a0)
a0800300:	ac82001c 	sw	v0,28(a0)
a0800304:	3c03a080 	lui	v1,0xa080
a0800308:	3c02a080 	lui	v0,0xa080
a080030c:	246307cc 	addiu	v1,v1,1996
a0800310:	24420800 	addiu	v0,v0,2048
a0800314:	ac830020 	sw	v1,32(a0)
a0800318:	ac820024 	sw	v0,36(a0)
a080031c:	3c03a080 	lui	v1,0xa080
a0800320:	3c02a080 	lui	v0,0xa080
a0800324:	246309bc 	addiu	v1,v1,2492
a0800328:	24420ab0 	addiu	v0,v0,2736
a080032c:	ac830028 	sw	v1,40(a0)
a0800330:	ac82002c 	sw	v0,44(a0)
a0800334:	3c03a080 	lui	v1,0xa080
a0800338:	3c02a080 	lui	v0,0xa080
a080033c:	24633598 	addiu	v1,v1,13720
a0800340:	244235a0 	addiu	v0,v0,13728
a0800344:	ac830030 	sw	v1,48(a0)
a0800348:	ac820034 	sw	v0,52(a0)
a080034c:	3c03a080 	lui	v1,0xa080
a0800350:	3c02a080 	lui	v0,0xa080
a0800354:	246335b0 	addiu	v1,v1,13744
a0800358:	244235b8 	addiu	v0,v0,13752
a080035c:	ac830038 	sw	v1,56(a0)
a0800360:	0c200c48 	jal	a0803120 <init_interrupts>
a0800364:	ac82003c 	sw	v0,60(a0)
a0800368:	0c200a48 	jal	a0802920 <get_timer>
a080036c:	00000000 	nop
a0800370:	0c200be4 	jal	a0802f90 <srand>
a0800374:	00402021 	move	a0,v0
a0800378:	0c200d64 	jal	a0803590 <init_mbox>
a080037c:	00000000 	nop
a0800380:	3c04a080 	lui	a0,0xa080
a0800384:	0c200200 	jal	a0800800 <do_spawn>
a0800388:	24843914 	addiu	a0,a0,14612
a080038c:	0c200512 	jal	a0801448 <enter_critical>
a0800390:	00000000 	nop
a0800394:	0c2002d4 	jal	a0800b50 <scheduler_entry>
a0800398:	00000000 	nop
a080039c:	3c06a080 	lui	a2,0xa080
a08003a0:	24c63818 	addiu	a2,a2,14360
a08003a4:	00002021 	move	a0,zero
a08003a8:	0c200aa1 	jal	a0802a84 <print_str>
a08003ac:	00002821 	move	a1,zero
a08003b0:	3c06a080 	lui	a2,0xa080
a08003b4:	24c63864 	addiu	a2,a2,14436
a08003b8:	00002021 	move	a0,zero
a08003bc:	0c200aa1 	jal	a0802a84 <print_str>
a08003c0:	24050013 	li	a1,19
a08003c4:	3c06a080 	lui	a2,0xa080
a08003c8:	24c63848 	addiu	a2,a2,14408
a08003cc:	24040001 	li	a0,1
a08003d0:	0c200aa1 	jal	a0802a84 <print_str>
a08003d4:	00002821 	move	a1,zero
a08003d8:	3c06a080 	lui	a2,0xa080
a08003dc:	24c63850 	addiu	a2,a2,14416
a08003e0:	24040001 	li	a0,1
a08003e4:	0c200aa1 	jal	a0802a84 <print_str>
a08003e8:	24050006 	li	a1,6
a08003ec:	3c06a080 	lui	a2,0xa080
a08003f0:	24c6385c 	addiu	a2,a2,14428
a08003f4:	24040002 	li	a0,2
a08003f8:	0c200aa1 	jal	a0802a84 <print_str>
a08003fc:	00002821 	move	a1,zero
a0800400:	24040002 	li	a0,2
a0800404:	24050006 	li	a1,6
a0800408:	0c200b3e 	jal	a0802cf8 <print_int>
a080040c:	24060047 	li	a2,71
a0800410:	08200104 	j	a0800410 <_start+0x210>
a0800414:	00000000 	nop
	...

a0800420 <stack_new>:
a0800420:	27bdffe8 	addiu	sp,sp,-24
a0800424:	3c05a080 	lui	a1,0xa080
a0800428:	afbf0010 	sw	ra,16(sp)
a080042c:	8ca23a64 	lw	v0,14948(a1)
a0800430:	3c040001 	lui	a0,0x1
a0800434:	3c03a100 	lui	v1,0xa100
a0800438:	00441021 	addu	v0,v0,a0
a080043c:	0062182b 	sltu	v1,v1,v0
a0800440:	14600005 	bnez	v1,a0800458 <stack_new+0x38>
a0800444:	aca23a64 	sw	v0,14948(a1)
a0800448:	8ca23a64 	lw	v0,14948(a1)
a080044c:	8fbf0010 	lw	ra,16(sp)
a0800450:	03e00008 	jr	ra
a0800454:	27bd0018 	addiu	sp,sp,24
a0800458:	3c06a080 	lui	a2,0xa080
a080045c:	24c63818 	addiu	a2,a2,14360
a0800460:	00002021 	move	a0,zero
a0800464:	0c200aa1 	jal	a0802a84 <print_str>
a0800468:	00002821 	move	a1,zero
a080046c:	3c06a080 	lui	a2,0xa080
a0800470:	24c6382c 	addiu	a2,a2,14380
a0800474:	00002021 	move	a0,zero
a0800478:	0c200aa1 	jal	a0802a84 <print_str>
a080047c:	24050013 	li	a1,19
a0800480:	3c06a080 	lui	a2,0xa080
a0800484:	24c63848 	addiu	a2,a2,14408
a0800488:	24040001 	li	a0,1
a080048c:	0c200aa1 	jal	a0802a84 <print_str>
a0800490:	00002821 	move	a1,zero
a0800494:	3c06a080 	lui	a2,0xa080
a0800498:	24c63850 	addiu	a2,a2,14416
a080049c:	24040001 	li	a0,1
a08004a0:	0c200aa1 	jal	a0802a84 <print_str>
a08004a4:	24050006 	li	a1,6
a08004a8:	3c06a080 	lui	a2,0xa080
a08004ac:	24c6385c 	addiu	a2,a2,14428
a08004b0:	24040002 	li	a0,2
a08004b4:	0c200aa1 	jal	a0802a84 <print_str>
a08004b8:	00002821 	move	a1,zero
a08004bc:	24040002 	li	a0,2
a08004c0:	24050006 	li	a1,6
a08004c4:	0c200b3e 	jal	a0802cf8 <print_int>
a08004c8:	24060050 	li	a2,80
a08004cc:	08200133 	j	a08004cc <stack_new+0xac>
a08004d0:	00000000 	nop

a08004d4 <first_entry>:
a08004d4:	27bdffe8 	addiu	sp,sp,-24
a08004d8:	afbf0010 	sw	ra,16(sp)
a08004dc:	0c200512 	jal	a0801448 <enter_critical>
a08004e0:	00000000 	nop
a08004e4:	3c05a080 	lui	a1,0xa080
a08004e8:	8ca33b20 	lw	v1,15136(a1)
a08004ec:	8c62014c 	lw	v0,332(v1)
a08004f0:	54400003 	bnezl	v0,a0800500 <first_entry+0x2c>
a08004f4:	8c640118 	lw	a0,280(v1)
a08004f8:	8c64007c 	lw	a0,124(v1)
a08004fc:	8ca33b20 	lw	v1,15136(a1)
a0800500:	8c620144 	lw	v0,324(v1)
a0800504:	0004e820 	add	sp,zero,a0
a0800508:	0c200522 	jal	a0801488 <leave_critical>
a080050c:	00000000 	nop
a0800510:	00000000 	nop
a0800514:	0002f820 	add	ra,zero,v0
a0800518:	03e00008 	jr	ra
a080051c:	00000000 	nop
a0800520:	3c06a080 	lui	a2,0xa080
a0800524:	24c63818 	addiu	a2,a2,14360
a0800528:	00002021 	move	a0,zero
a080052c:	0c200aa1 	jal	a0802a84 <print_str>
a0800530:	00002821 	move	a1,zero
a0800534:	3c06a080 	lui	a2,0xa080
a0800538:	24c63864 	addiu	a2,a2,14436
a080053c:	00002021 	move	a0,zero
a0800540:	0c200aa1 	jal	a0802a84 <print_str>
a0800544:	24050013 	li	a1,19
a0800548:	3c06a080 	lui	a2,0xa080
a080054c:	24c63848 	addiu	a2,a2,14408
a0800550:	24040001 	li	a0,1
a0800554:	0c200aa1 	jal	a0802a84 <print_str>
a0800558:	00002821 	move	a1,zero
a080055c:	3c06a080 	lui	a2,0xa080
a0800560:	24c63850 	addiu	a2,a2,14416
a0800564:	24040001 	li	a0,1
a0800568:	0c200aa1 	jal	a0802a84 <print_str>
a080056c:	24050006 	li	a1,6
a0800570:	3c06a080 	lui	a2,0xa080
a0800574:	24c6385c 	addiu	a2,a2,14428
a0800578:	24040002 	li	a0,2
a080057c:	0c200aa1 	jal	a0802a84 <print_str>
a0800580:	00002821 	move	a1,zero
a0800584:	24040002 	li	a0,2
a0800588:	24050006 	li	a1,6
a080058c:	0c200b3e 	jal	a0802cf8 <print_int>
a0800590:	24060085 	li	a2,133
a0800594:	08200165 	j	a0800594 <first_entry+0xc0>
a0800598:	00000000 	nop

a080059c <invalid_syscall>:
a080059c:	3c06a080 	lui	a2,0xa080
a08005a0:	27bdffe8 	addiu	sp,sp,-24
a08005a4:	24c63818 	addiu	a2,a2,14360
a08005a8:	00002021 	move	a0,zero
a08005ac:	afbf0010 	sw	ra,16(sp)
a08005b0:	0c200aa1 	jal	a0802a84 <print_str>
a08005b4:	00002821 	move	a1,zero
a08005b8:	3c06a080 	lui	a2,0xa080
a08005bc:	24c6386c 	addiu	a2,a2,14444
a08005c0:	00002021 	move	a0,zero
a08005c4:	0c200aa1 	jal	a0802a84 <print_str>
a08005c8:	24050013 	li	a1,19
a08005cc:	3c06a080 	lui	a2,0xa080
a08005d0:	24c63848 	addiu	a2,a2,14408
a08005d4:	24040001 	li	a0,1
a08005d8:	0c200aa1 	jal	a0802a84 <print_str>
a08005dc:	00002821 	move	a1,zero
a08005e0:	3c06a080 	lui	a2,0xa080
a08005e4:	24c63850 	addiu	a2,a2,14416
a08005e8:	24040001 	li	a0,1
a08005ec:	0c200aa1 	jal	a0802a84 <print_str>
a08005f0:	24050006 	li	a1,6
a08005f4:	3c06a080 	lui	a2,0xa080
a08005f8:	24c6385c 	addiu	a2,a2,14428
a08005fc:	24040002 	li	a0,2
a0800600:	0c200aa1 	jal	a0802a84 <print_str>
a0800604:	00002821 	move	a1,zero
a0800608:	24040002 	li	a0,2
a080060c:	24050006 	li	a1,6
a0800610:	0c200b3e 	jal	a0802cf8 <print_int>
a0800614:	2406008b 	li	a2,139
a0800618:	08200186 	j	a0800618 <invalid_syscall+0x7c>
a080061c:	00000000 	nop

a0800620 <print_status>:
a0800620:	3c06a080 	lui	a2,0xa080
a0800624:	27bdffc0 	addiu	sp,sp,-64
a0800628:	24c638ac 	addiu	a2,a2,14508
a080062c:	2404000d 	li	a0,13
a0800630:	24050006 	li	a1,6
a0800634:	afbf0038 	sw	ra,56(sp)
a0800638:	afb50034 	sw	s5,52(sp)
a080063c:	afb40030 	sw	s4,48(sp)
a0800640:	afb3002c 	sw	s3,44(sp)
a0800644:	afb20028 	sw	s2,40(sp)
a0800648:	afb10024 	sw	s1,36(sp)
a080064c:	0c2005c5 	jal	a0801714 <printf>
a0800650:	afb00020 	sw	s0,32(sp)
a0800654:	3c06a080 	lui	a2,0xa080
a0800658:	2404000f 	li	a0,15
a080065c:	24c638c8 	addiu	a2,a2,14536
a0800660:	0c2005c5 	jal	a0801714 <printf>
a0800664:	24050001 	li	a1,1
a0800668:	3c02a080 	lui	v0,0xa080
a080066c:	3c03a081 	lui	v1,0xa081
a0800670:	24543a68 	addiu	s4,v0,14952
a0800674:	2470c718 	addiu	s0,v1,-14568
a0800678:	00008821 	move	s1,zero
a080067c:	24040011 	li	a0,17
a0800680:	3c13a080 	lui	s3,0xa080
a0800684:	3c12a080 	lui	s2,0xa080
a0800688:	3c15a080 	lui	s5,0xa080
a080068c:	8e02014c 	lw	v0,332(s0)
a0800690:	26310001 	addiu	s1,s1,1
a0800694:	24050001 	li	a1,1
a0800698:	266638e8 	addiu	a2,s3,14568
a080069c:	8e070148 	lw	a3,328(s0)
a08006a0:	10400002 	beqz	v0,a08006ac <print_status+0x8c>
a08006a4:	264338f8 	addiu	v1,s2,14584
a08006a8:	26a33900 	addiu	v1,s5,14592
a08006ac:	8e020150 	lw	v0,336(s0)
a08006b0:	afa30010 	sw	v1,16(sp)
a08006b4:	8e080160 	lw	t0,352(s0)
a08006b8:	00021080 	sll	v0,v0,0x2
a08006bc:	00541021 	addu	v0,v0,s4
a08006c0:	8c430000 	lw	v1,0(v0)
a08006c4:	8e090154 	lw	t1,340(s0)
a08006c8:	afa80014 	sw	t0,20(sp)
a08006cc:	afa30018 	sw	v1,24(sp)
a08006d0:	0c2005c5 	jal	a0801714 <printf>
a08006d4:	afa9001c 	sw	t1,28(sp)
a08006d8:	26240011 	addiu	a0,s1,17
a08006dc:	2a220020 	slti	v0,s1,32
a08006e0:	26100168 	addiu	s0,s0,360
a08006e4:	10400003 	beqz	v0,a08006f4 <print_status+0xd4>
a08006e8:	28830019 	slti	v1,a0,25
a08006ec:	5460ffe8 	bnezl	v1,a0800690 <print_status+0x70>
a08006f0:	8e02014c 	lw	v0,332(s0)
a08006f4:	8fbf0038 	lw	ra,56(sp)
a08006f8:	8fb50034 	lw	s5,52(sp)
a08006fc:	8fb40030 	lw	s4,48(sp)
a0800700:	8fb3002c 	lw	s3,44(sp)
a0800704:	8fb20028 	lw	s2,40(sp)
a0800708:	8fb10024 	lw	s1,36(sp)
a080070c:	8fb00020 	lw	s0,32(sp)
a0800710:	03e00008 	jr	ra
a0800714:	27bd0040 	addiu	sp,sp,64

a0800718 <do_shutdown>:
a0800718:	3c06a080 	lui	a2,0xa080
a080071c:	27bdffe8 	addiu	sp,sp,-24
a0800720:	24c63818 	addiu	a2,a2,14360
a0800724:	00002021 	move	a0,zero
a0800728:	afbf0010 	sw	ra,16(sp)
a080072c:	0c200aa1 	jal	a0802a84 <print_str>
a0800730:	00002821 	move	a1,zero
a0800734:	3c06a080 	lui	a2,0xa080
a0800738:	24c63908 	addiu	a2,a2,14600
a080073c:	00002021 	move	a0,zero
a0800740:	0c200aa1 	jal	a0802a84 <print_str>
a0800744:	24050013 	li	a1,19
a0800748:	3c06a080 	lui	a2,0xa080
a080074c:	24c63848 	addiu	a2,a2,14408
a0800750:	24040001 	li	a0,1
a0800754:	0c200aa1 	jal	a0802a84 <print_str>
a0800758:	00002821 	move	a1,zero
a080075c:	3c06a080 	lui	a2,0xa080
a0800760:	24c63850 	addiu	a2,a2,14416
a0800764:	24040001 	li	a0,1
a0800768:	0c200aa1 	jal	a0802a84 <print_str>
a080076c:	24050006 	li	a1,6
a0800770:	3c06a080 	lui	a2,0xa080
a0800774:	24c6385c 	addiu	a2,a2,14428
a0800778:	24040002 	li	a0,2
a080077c:	0c200aa1 	jal	a0802a84 <print_str>
a0800780:	00002821 	move	a1,zero
a0800784:	24040002 	li	a0,2
a0800788:	24050006 	li	a1,6
a080078c:	0c200b3e 	jal	a0802cf8 <print_int>
a0800790:	240600ca 	li	a2,202
a0800794:	082001e5 	j	a0800794 <do_shutdown+0x7c>
a0800798:	00000000 	nop

a080079c <do_write_serial>:
a080079c:	3402c350 	li	v0,0xc350
a08007a0:	2403ffff 	li	v1,-1
a08007a4:	2442ffeb 	addiu	v0,v0,-21
a08007a8:	1443ffff 	bne	v0,v1,a08007a8 <do_write_serial+0xc>
a08007ac:	2442ffeb 	addiu	v0,v0,-21
a08007b0:	3c02bfe4 	lui	v0,0xbfe4
a08007b4:	34428000 	ori	v0,v0,0x8000
a08007b8:	03e00008 	jr	ra
a08007bc:	a0440000 	sb	a0,0(v0)

a08007c0 <printcharc>:
a08007c0:	00042600 	sll	a0,a0,0x18
a08007c4:	082001e7 	j	a080079c <do_write_serial>
a08007c8:	00042603 	sra	a0,a0,0x18

a08007cc <print_char>:
a08007cc:	27bdffe8 	addiu	sp,sp,-24
a08007d0:	afbf0014 	sw	ra,20(sp)
a08007d4:	afb00010 	sw	s0,16(sp)
a08007d8:	0c200b70 	jal	a0802dc0 <print_location>
a08007dc:	00068600 	sll	s0,a2,0x18
a08007e0:	3c03bfe4 	lui	v1,0xbfe4
a08007e4:	00108603 	sra	s0,s0,0x18
a08007e8:	34638000 	ori	v1,v1,0x8000
a08007ec:	a0700000 	sb	s0,0(v1)
a08007f0:	8fbf0014 	lw	ra,20(sp)
a08007f4:	8fb00010 	lw	s0,16(sp)
a08007f8:	03e00008 	jr	ra
a08007fc:	27bd0018 	addiu	sp,sp,24

a0800800 <do_spawn>:
a0800800:	27bdffc8 	addiu	sp,sp,-56
a0800804:	afb30024 	sw	s3,36(sp)
a0800808:	afbf0030 	sw	ra,48(sp)
a080080c:	afb5002c 	sw	s5,44(sp)
a0800810:	afb40028 	sw	s4,40(sp)
a0800814:	afb20020 	sw	s2,32(sp)
a0800818:	afb1001c 	sw	s1,28(sp)
a080081c:	afb00018 	sw	s0,24(sp)
a0800820:	24130001 	li	s3,1
a0800824:	3c14a081 	lui	s4,0xa081
a0800828:	2691c718 	addiu	s1,s4,-14568
a080082c:	8e220150 	lw	v0,336(s1)
a0800830:	38420003 	xori	v0,v0,0x3
a0800834:	0002102b 	sltu	v0,zero,v0
a0800838:	00021023 	negu	v0,v0
a080083c:	0c200d3f 	jal	a08034fc <ramdisk_find_File>
a0800840:	02429024 	and	s2,s2,v0
a0800844:	00401821 	move	v1,v0
a0800848:	8c420004 	lw	v0,4(v0)
a080084c:	1440004a 	bnez	v0,a0800978 <do_spawn+0x178>
a0800850:	2404ffff 	li	a0,-1
a0800854:	8c620008 	lw	v0,8(v1)
a0800858:	afa00010 	sw	zero,16(sp)
a080085c:	0012a840 	sll	s5,s2,0x1
a0800860:	0c200512 	jal	a0801448 <enter_critical>
a0800864:	afa20014 	sw	v0,20(sp)
a0800868:	3c03a080 	lui	v1,0xa080
a080086c:	8c623a60 	lw	v0,14944(v1)
a0800870:	00408021 	move	s0,v0
a0800874:	24420001 	addiu	v0,v0,1
a0800878:	0c200522 	jal	a0801488 <leave_critical>
a080087c:	ac623a60 	sw	v0,14944(v1)
a0800880:	02b21821 	addu	v1,s5,s2
a0800884:	00031100 	sll	v0,v1,0x4
a0800888:	00431023 	subu	v0,v0,v1
a080088c:	8fa40014 	lw	a0,20(sp)
a0800890:	8fa30010 	lw	v1,16(sp)
a0800894:	000210c0 	sll	v0,v0,0x3
a0800898:	00518821 	addu	s1,v0,s1
a080089c:	ae230144 	sw	v1,324(s1)
a08008a0:	ae300148 	sw	s0,328(s1)
a08008a4:	ae24014c 	sw	a0,332(s1)
a08008a8:	ae330160 	sw	s3,352(s1)
a08008ac:	10800021 	beqz	a0,a0800934 <do_spawn+0x134>
a08008b0:	ae200150 	sw	zero,336(s1)
a08008b4:	1093003a 	beq	a0,s3,a08009a0 <do_spawn+0x1a0>
a08008b8:	3c06a080 	lui	a2,0xa080
a08008bc:	24c63818 	addiu	a2,a2,14360
a08008c0:	00002021 	move	a0,zero
a08008c4:	0c200aa1 	jal	a0802a84 <print_str>
a08008c8:	00002821 	move	a1,zero
a08008cc:	3c06a080 	lui	a2,0xa080
a08008d0:	24c63864 	addiu	a2,a2,14436
a08008d4:	00002021 	move	a0,zero
a08008d8:	0c200aa1 	jal	a0802a84 <print_str>
a08008dc:	24050013 	li	a1,19
a08008e0:	3c06a080 	lui	a2,0xa080
a08008e4:	24c63848 	addiu	a2,a2,14408
a08008e8:	24040001 	li	a0,1
a08008ec:	0c200aa1 	jal	a0802a84 <print_str>
a08008f0:	00002821 	move	a1,zero
a08008f4:	3c06a080 	lui	a2,0xa080
a08008f8:	24c63850 	addiu	a2,a2,14416
a08008fc:	24040001 	li	a0,1
a0800900:	0c200aa1 	jal	a0802a84 <print_str>
a0800904:	24050006 	li	a1,6
a0800908:	3c06a080 	lui	a2,0xa080
a080090c:	24c6385c 	addiu	a2,a2,14428
a0800910:	24040002 	li	a0,2
a0800914:	0c200aa1 	jal	a0802a84 <print_str>
a0800918:	00002821 	move	a1,zero
a080091c:	24040002 	li	a0,2
a0800920:	24050006 	li	a1,6
a0800924:	0c200b3e 	jal	a0802cf8 <print_int>
a0800928:	24060067 	li	a2,103
a080092c:	0820024b 	j	a080092c <do_spawn+0x12c>
a0800930:	00000000 	nop
a0800934:	0c200108 	jal	a0800420 <stack_new>
a0800938:	00000000 	nop
a080093c:	ae22007c 	sw	v0,124(s1)
a0800940:	ae330140 	sw	s3,320(s1)
a0800944:	02b21021 	addu	v0,s5,s2
a0800948:	00022900 	sll	a1,v0,0x4
a080094c:	00a22823 	subu	a1,a1,v0
a0800950:	000528c0 	sll	a1,a1,0x3
a0800954:	2682c718 	addiu	v0,s4,-14568
a0800958:	00a22821 	addu	a1,a1,v0
a080095c:	3c02a080 	lui	v0,0xa080
a0800960:	244204d4 	addiu	v0,v0,1236
a0800964:	3c04a080 	lui	a0,0xa080
a0800968:	24843b18 	addiu	a0,a0,15128
a080096c:	0c200c0b 	jal	a080302c <enqueue>
a0800970:	ae220084 	sw	v0,132(s1)
a0800974:	00002021 	move	a0,zero
a0800978:	8fbf0030 	lw	ra,48(sp)
a080097c:	8fb5002c 	lw	s5,44(sp)
a0800980:	8fb40028 	lw	s4,40(sp)
a0800984:	8fb30024 	lw	s3,36(sp)
a0800988:	8fb20020 	lw	s2,32(sp)
a080098c:	8fb1001c 	lw	s1,28(sp)
a0800990:	8fb00018 	lw	s0,24(sp)
a0800994:	00801021 	move	v0,a0
a0800998:	03e00008 	jr	ra
a080099c:	27bd0038 	addiu	sp,sp,56
a08009a0:	0c200108 	jal	a0800420 <stack_new>
a08009a4:	00000000 	nop
a08009a8:	0c200108 	jal	a0800420 <stack_new>
a08009ac:	ae22007c 	sw	v0,124(s1)
a08009b0:	ae220118 	sw	v0,280(s1)
a08009b4:	08200251 	j	a0800944 <do_spawn+0x144>
a08009b8:	ae200140 	sw	zero,320(s1)

a08009bc <do_kill>:
a08009bc:	27bdffe0 	addiu	sp,sp,-32
a08009c0:	afb20018 	sw	s2,24(sp)
a08009c4:	3c12a081 	lui	s2,0xa081
a08009c8:	00002821 	move	a1,zero
a08009cc:	24060003 	li	a2,3
a08009d0:	2643c718 	addiu	v1,s2,-14568
a08009d4:	afbf001c 	sw	ra,28(sp)
a08009d8:	afb10014 	sw	s1,20(sp)
a08009dc:	0820027c 	j	a08009f0 <do_kill+0x34>
a08009e0:	afb00010 	sw	s0,16(sp)
a08009e4:	28a20020 	slti	v0,a1,32
a08009e8:	10400008 	beqz	v0,a0800a0c <do_kill+0x50>
a08009ec:	24630168 	addiu	v1,v1,360
a08009f0:	8c620148 	lw	v0,328(v1)
a08009f4:	5444fffb 	bnel	v0,a0,a08009e4 <do_kill+0x28>
a08009f8:	24a50001 	addiu	a1,a1,1
a08009fc:	8c620150 	lw	v0,336(v1)
a0800a00:	5046fff8 	beql	v0,a2,a08009e4 <do_kill+0x28>
a0800a04:	24a50001 	addiu	a1,a1,1
a0800a08:	00a08821 	move	s1,a1
a0800a0c:	24020020 	li	v0,32
a0800a10:	10a20016 	beq	a1,v0,a0800a6c <do_kill+0xb0>
a0800a14:	3c10a080 	lui	s0,0xa080
a0800a18:	8e023b20 	lw	v0,15136(s0)
a0800a1c:	8c430148 	lw	v1,328(v0)
a0800a20:	10640019 	beq	v1,a0,a0800a88 <do_kill+0xcc>
a0800a24:	00000000 	nop
a0800a28:	0c200512 	jal	a0801448 <enter_critical>
a0800a2c:	00000000 	nop
a0800a30:	00111040 	sll	v0,s1,0x1
a0800a34:	00511021 	addu	v0,v0,s1
a0800a38:	00021900 	sll	v1,v0,0x4
a0800a3c:	00621823 	subu	v1,v1,v0
a0800a40:	000318c0 	sll	v1,v1,0x3
a0800a44:	2642c718 	addiu	v0,s2,-14568
a0800a48:	00621821 	addu	v1,v1,v0
a0800a4c:	8c650000 	lw	a1,0(v1)
a0800a50:	8c640004 	lw	a0,4(v1)
a0800a54:	24020003 	li	v0,3
a0800a58:	ac620150 	sw	v0,336(v1)
a0800a5c:	aca40004 	sw	a0,4(a1)
a0800a60:	8c620004 	lw	v0,4(v1)
a0800a64:	0c200522 	jal	a0801488 <leave_critical>
a0800a68:	aca20004 	sw	v0,4(a1)
a0800a6c:	8fbf001c 	lw	ra,28(sp)
a0800a70:	8fb20018 	lw	s2,24(sp)
a0800a74:	8fb10014 	lw	s1,20(sp)
a0800a78:	8fb00010 	lw	s0,16(sp)
a0800a7c:	2402ffff 	li	v0,-1
a0800a80:	03e00008 	jr	ra
a0800a84:	27bd0020 	addiu	sp,sp,32
a0800a88:	0c200512 	jal	a0801448 <enter_critical>
a0800a8c:	00000000 	nop
a0800a90:	8e033b20 	lw	v1,15136(s0)
a0800a94:	24020003 	li	v0,3
a0800a98:	0c2002d4 	jal	a0800b50 <scheduler_entry>
a0800a9c:	ac620150 	sw	v0,336(v1)
a0800aa0:	0c200522 	jal	a0801488 <leave_critical>
a0800aa4:	00000000 	nop
a0800aa8:	0820028a 	j	a0800a28 <do_kill+0x6c>
a0800aac:	00000000 	nop

a0800ab0 <do_wait>:
a0800ab0:	27bdffe8 	addiu	sp,sp,-24
a0800ab4:	afb00010 	sw	s0,16(sp)
a0800ab8:	3c10a080 	lui	s0,0xa080
a0800abc:	8e033b20 	lw	v1,15136(s0)
a0800ac0:	afbf0014 	sw	ra,20(sp)
a0800ac4:	8c620148 	lw	v0,328(v1)
a0800ac8:	1044001b 	beq	v0,a0,a0800b38 <do_wait+0x88>
a0800acc:	2406ffff 	li	a2,-1
a0800ad0:	3c02a081 	lui	v0,0xa081
a0800ad4:	2443c718 	addiu	v1,v0,-14568
a0800ad8:	00002821 	move	a1,zero
a0800adc:	082002bc 	j	a0800af0 <do_wait+0x40>
a0800ae0:	24060003 	li	a2,3
a0800ae4:	28a20020 	slti	v0,a1,32
a0800ae8:	10400007 	beqz	v0,a0800b08 <do_wait+0x58>
a0800aec:	24630168 	addiu	v1,v1,360
a0800af0:	8c620148 	lw	v0,328(v1)
a0800af4:	5444fffb 	bnel	v0,a0,a0800ae4 <do_wait+0x34>
a0800af8:	24a50001 	addiu	a1,a1,1
a0800afc:	8c620150 	lw	v0,336(v1)
a0800b00:	5046fff8 	beql	v0,a2,a0800ae4 <do_wait+0x34>
a0800b04:	24a50001 	addiu	a1,a1,1
a0800b08:	24020020 	li	v0,32
a0800b0c:	10a2000a 	beq	a1,v0,a0800b38 <do_wait+0x88>
a0800b10:	2406ffff 	li	a2,-1
a0800b14:	0c200512 	jal	a0801448 <enter_critical>
a0800b18:	00000000 	nop
a0800b1c:	8e033b20 	lw	v1,15136(s0)
a0800b20:	24020002 	li	v0,2
a0800b24:	0c2002d4 	jal	a0800b50 <scheduler_entry>
a0800b28:	ac620150 	sw	v0,336(v1)
a0800b2c:	0c200522 	jal	a0801488 <leave_critical>
a0800b30:	00000000 	nop
a0800b34:	00003021 	move	a2,zero
a0800b38:	8fbf0014 	lw	ra,20(sp)
a0800b3c:	8fb00010 	lw	s0,16(sp)
a0800b40:	00c01021 	move	v0,a2
a0800b44:	03e00008 	jr	ra
a0800b48:	27bd0018 	addiu	sp,sp,24
a0800b4c:	00000000 	nop

a0800b50 <scheduler_entry>:
a0800b50:	03a0d820 	add	k1,sp,zero
a0800b54:	3c1aa080 	lui	k0,0xa080
a0800b58:	275a3b20 	addiu	k0,k0,15136
a0800b5c:	8f5d0000 	lw	sp,0(k0)
a0800b60:	23bd0008 	addi	sp,sp,8
a0800b64:	401a6000 	mfc0	k0,$12
a0800b68:	00000000 	nop
a0800b6c:	001ad0c0 	sll	k0,k0,0x3
a0800b70:	07400002 	bltz	k0,a0800b7c <scheduler_entry+0x2c>
a0800b74:	00000000 	nop
a0800b78:	00000000 	nop
a0800b7c:	afbb0074 	sw	k1,116(sp)
a0800b80:	afa20008 	sw	v0,8(sp)
a0800b84:	401a6000 	mfc0	k0,$12
a0800b88:	00000000 	nop
a0800b8c:	afba0080 	sw	k0,128(sp)
a0800b90:	401a6800 	mfc0	k0,$13
a0800b94:	00000000 	nop
a0800b98:	afba0090 	sw	k0,144(sp)
a0800b9c:	401a7000 	mfc0	k0,$14
a0800ba0:	00000000 	nop
a0800ba4:	afba0094 	sw	k0,148(sp)
a0800ba8:	401a4000 	mfc0	k0,$8
a0800bac:	00000000 	nop
a0800bb0:	afba008c 	sw	k0,140(sp)
a0800bb4:	0000d010 	mfhi	k0
a0800bb8:	afba0084 	sw	k0,132(sp)
a0800bbc:	0000d012 	mflo	k0
a0800bc0:	afba0088 	sw	k0,136(sp)
a0800bc4:	afa00000 	sw	zero,0(sp)
a0800bc8:	afa10004 	sw	at,4(sp)
a0800bcc:	afa3000c 	sw	v1,12(sp)
a0800bd0:	afa40010 	sw	a0,16(sp)
a0800bd4:	afa50014 	sw	a1,20(sp)
a0800bd8:	afa60018 	sw	a2,24(sp)
a0800bdc:	afa7001c 	sw	a3,28(sp)
a0800be0:	afa80020 	sw	t0,32(sp)
a0800be4:	afa90024 	sw	t1,36(sp)
a0800be8:	afaa0028 	sw	t2,40(sp)
a0800bec:	afab002c 	sw	t3,44(sp)
a0800bf0:	afac0030 	sw	t4,48(sp)
a0800bf4:	afad0034 	sw	t5,52(sp)
a0800bf8:	afae0038 	sw	t6,56(sp)
a0800bfc:	afaf003c 	sw	t7,60(sp)
a0800c00:	afb00040 	sw	s0,64(sp)
a0800c04:	afb10044 	sw	s1,68(sp)
a0800c08:	afb20048 	sw	s2,72(sp)
a0800c0c:	afb3004c 	sw	s3,76(sp)
a0800c10:	afb40050 	sw	s4,80(sp)
a0800c14:	afb50054 	sw	s5,84(sp)
a0800c18:	afb60058 	sw	s6,88(sp)
a0800c1c:	afb7005c 	sw	s7,92(sp)
a0800c20:	afb80060 	sw	t8,96(sp)
a0800c24:	afb90064 	sw	t9,100(sp)
a0800c28:	afba0068 	sw	k0,104(sp)
a0800c2c:	afbb006c 	sw	k1,108(sp)
a0800c30:	afbc0070 	sw	gp,112(sp)
a0800c34:	afbe0078 	sw	s8,120(sp)
a0800c38:	afbf007c 	sw	ra,124(sp)
a0800c3c:	0360e820 	add	sp,k1,zero
a0800c40:	0c2008dc 	jal	a0802370 <scheduler>
a0800c44:	00000000 	nop
a0800c48:	3c1aa080 	lui	k0,0xa080
a0800c4c:	275a3a8c 	addiu	k0,k0,14988
a0800c50:	8f5b0000 	lw	k1,0(k0)
a0800c54:	237bffff 	addi	k1,k1,-1
a0800c58:	1760023a 	bnez	k1,a0801544 <panicl>
a0800c5c:	00000000 	nop
a0800c60:	00000000 	nop
a0800c64:	af5b0000 	sw	k1,0(k0)
a0800c68:	3c1da080 	lui	sp,0xa080
a0800c6c:	27bd3b20 	addiu	sp,sp,15136
a0800c70:	8fbd0000 	lw	sp,0(sp)
a0800c74:	23bd0008 	addi	sp,sp,8
a0800c78:	40086000 	mfc0	t0,$12
a0800c7c:	00000000 	nop
a0800c80:	35080003 	ori	t0,t0,0x3
a0800c84:	39080003 	xori	t0,t0,0x3
a0800c88:	40886000 	mtc0	t0,$12
a0800c8c:	8fa20080 	lw	v0,128(sp)
a0800c90:	3403ff00 	li	v1,0xff00
a0800c94:	01034024 	and	t0,t0,v1
a0800c98:	00031827 	nor	v1,zero,v1
a0800c9c:	00431024 	and	v0,v0,v1
a0800ca0:	00481025 	or	v0,v0,t0
a0800ca4:	40826000 	mtc0	v0,$12
a0800ca8:	8fa30088 	lw	v1,136(sp)
a0800cac:	00600013 	mtlo	v1
a0800cb0:	8fa20084 	lw	v0,132(sp)
a0800cb4:	8fa30094 	lw	v1,148(sp)
a0800cb8:	00400011 	mthi	v0
a0800cbc:	40837000 	mtc0	v1,$14
a0800cc0:	8fbf007c 	lw	ra,124(sp)
a0800cc4:	8fbe0078 	lw	s8,120(sp)
a0800cc8:	8fbc0070 	lw	gp,112(sp)
a0800ccc:	8fb90064 	lw	t9,100(sp)
a0800cd0:	8fb80060 	lw	t8,96(sp)
a0800cd4:	8fb7005c 	lw	s7,92(sp)
a0800cd8:	8fb60058 	lw	s6,88(sp)
a0800cdc:	8fb50054 	lw	s5,84(sp)
a0800ce0:	8fb40050 	lw	s4,80(sp)
a0800ce4:	8fb3004c 	lw	s3,76(sp)
a0800ce8:	8fb20048 	lw	s2,72(sp)
a0800cec:	8fb10044 	lw	s1,68(sp)
a0800cf0:	8fb00040 	lw	s0,64(sp)
a0800cf4:	8faf003c 	lw	t7,60(sp)
a0800cf8:	8fae0038 	lw	t6,56(sp)
a0800cfc:	8fad0034 	lw	t5,52(sp)
a0800d00:	8fac0030 	lw	t4,48(sp)
a0800d04:	8fab002c 	lw	t3,44(sp)
a0800d08:	8faa0028 	lw	t2,40(sp)
a0800d0c:	8fa90024 	lw	t1,36(sp)
a0800d10:	8fa80020 	lw	t0,32(sp)
a0800d14:	8fa7001c 	lw	a3,28(sp)
a0800d18:	8fa60018 	lw	a2,24(sp)
a0800d1c:	8fa50014 	lw	a1,20(sp)
a0800d20:	8fa40010 	lw	a0,16(sp)
a0800d24:	8fa3000c 	lw	v1,12(sp)
a0800d28:	8fa20008 	lw	v0,8(sp)
a0800d2c:	8fa10004 	lw	at,4(sp)
a0800d30:	8fbd0074 	lw	sp,116(sp)
a0800d34:	401a6000 	mfc0	k0,$12
a0800d38:	3c1b1000 	lui	k1,0x1000
a0800d3c:	377b0001 	ori	k1,k1,0x1
a0800d40:	035bd025 	or	k0,k0,k1
a0800d44:	409a6000 	mtc0	k0,$12
a0800d48:	03e00008 	jr	ra
a0800d4c:	00000000 	nop

a0800d50 <asm_start>:
a0800d50:	40806000 	mtc0	zero,$12
a0800d54:	00000000 	nop
a0800d58:	40809000 	mtc0	zero,$18
a0800d5c:	00000000 	nop
a0800d60:	40809800 	mtc0	zero,$19
a0800d64:	00000000 	nop
a0800d68:	40088000 	mfc0	t0,$16
a0800d6c:	2401fff8 	li	at,-8
a0800d70:	01014024 	and	t0,t0,at
a0800d74:	35080002 	ori	t0,t0,0x2
a0800d78:	40888000 	mtc0	t0,$16
a0800d7c:	03e00008 	jr	ra
a0800d80:	00000000 	nop

a0800d84 <reset_timer>:
a0800d84:	40804800 	mtc0	zero,$9
a0800d88:	00000000 	nop
a0800d8c:	40845800 	mtc0	a0,$11
a0800d90:	03e00008 	jr	ra
a0800d94:	00000000 	nop

a0800d98 <general_exception_handler>:
a0800d98:	401a6000 	mfc0	k0,$12
a0800d9c:	3c1b1000 	lui	k1,0x1000
a0800da0:	377b0001 	ori	k1,k1,0x1
a0800da4:	035bd025 	or	k0,k0,k1
a0800da8:	3b5a0001 	xori	k0,k0,0x1
a0800dac:	409a6000 	mtc0	k0,$12
a0800db0:	401a6800 	mfc0	k0,$13
a0800db4:	335a007c 	andi	k0,k0,0x7c
a0800db8:	3c1ba081 	lui	k1,0xa081
a0800dbc:	277bf418 	addiu	k1,k1,-3048
a0800dc0:	035bd020 	add	k0,k0,k1
a0800dc4:	8f5a0000 	lw	k0,0(k0)
a0800dc8:	03400008 	jr	k0
a0800dcc:	00000000 	nop

a0800dd0 <return_from_exception>:
a0800dd0:	401a6000 	mfc0	k0,$12
a0800dd4:	3c1b1000 	lui	k1,0x1000
a0800dd8:	377b0001 	ori	k1,k1,0x1
a0800ddc:	035bd025 	or	k0,k0,k1
a0800de0:	409a6000 	mtc0	k0,$12
a0800de4:	42000018 	eret

a0800de8 <simple_handler>:
a0800de8:	03a0d820 	add	k1,sp,zero
a0800dec:	3c1aa080 	lui	k0,0xa080
a0800df0:	275a3b20 	addiu	k0,k0,15136
a0800df4:	8f5d0000 	lw	sp,0(k0)
a0800df8:	23bd0008 	addi	sp,sp,8
a0800dfc:	401a6000 	mfc0	k0,$12
a0800e00:	001ad0c0 	sll	k0,k0,0x3
a0800e04:	07400002 	bltz	k0,a0800e10 <simple_handler+0x28>
a0800e08:	00000000 	nop
a0800e0c:	00000000 	nop
a0800e10:	afbb0074 	sw	k1,116(sp)
a0800e14:	afa20008 	sw	v0,8(sp)
a0800e18:	401a6000 	mfc0	k0,$12
a0800e1c:	afba0080 	sw	k0,128(sp)
a0800e20:	401a6800 	mfc0	k0,$13
a0800e24:	afba0090 	sw	k0,144(sp)
a0800e28:	401a7000 	mfc0	k0,$14
a0800e2c:	afba0094 	sw	k0,148(sp)
a0800e30:	401a4000 	mfc0	k0,$8
a0800e34:	afba008c 	sw	k0,140(sp)
a0800e38:	0000d010 	mfhi	k0
a0800e3c:	afba0084 	sw	k0,132(sp)
a0800e40:	0000d012 	mflo	k0
a0800e44:	afba0088 	sw	k0,136(sp)
a0800e48:	afa00000 	sw	zero,0(sp)
a0800e4c:	afa10004 	sw	at,4(sp)
a0800e50:	afa3000c 	sw	v1,12(sp)
a0800e54:	afa40010 	sw	a0,16(sp)
a0800e58:	afa50014 	sw	a1,20(sp)
a0800e5c:	afa60018 	sw	a2,24(sp)
a0800e60:	afa7001c 	sw	a3,28(sp)
a0800e64:	afa80020 	sw	t0,32(sp)
a0800e68:	afa90024 	sw	t1,36(sp)
a0800e6c:	afaa0028 	sw	t2,40(sp)
a0800e70:	afab002c 	sw	t3,44(sp)
a0800e74:	afac0030 	sw	t4,48(sp)
a0800e78:	afad0034 	sw	t5,52(sp)
a0800e7c:	afae0038 	sw	t6,56(sp)
a0800e80:	afaf003c 	sw	t7,60(sp)
a0800e84:	afb00040 	sw	s0,64(sp)
a0800e88:	afb10044 	sw	s1,68(sp)
a0800e8c:	afb20048 	sw	s2,72(sp)
a0800e90:	afb3004c 	sw	s3,76(sp)
a0800e94:	afb40050 	sw	s4,80(sp)
a0800e98:	afb50054 	sw	s5,84(sp)
a0800e9c:	afb60058 	sw	s6,88(sp)
a0800ea0:	afb7005c 	sw	s7,92(sp)
a0800ea4:	afb80060 	sw	t8,96(sp)
a0800ea8:	afb90064 	sw	t9,100(sp)
a0800eac:	afba0068 	sw	k0,104(sp)
a0800eb0:	afbb006c 	sw	k1,108(sp)
a0800eb4:	afbc0070 	sw	gp,112(sp)
a0800eb8:	afbe0078 	sw	s8,120(sp)
a0800ebc:	afbf007c 	sw	ra,124(sp)
a0800ec0:	0360e820 	add	sp,k1,zero
a0800ec4:	401a6800 	mfc0	k0,$13
a0800ec8:	335aff00 	andi	k0,k0,0xff00
a0800ecc:	735ad020 	0x735ad020
a0800ed0:	3b5a0017 	xori	k0,k0,0x17
a0800ed4:	03402020 	add	a0,k0,zero
a0800ed8:	401a6800 	mfc0	k0,$13
a0800edc:	335a007c 	andi	k0,k0,0x7c
a0800ee0:	001ad082 	srl	k0,k0,0x2
a0800ee4:	03402820 	add	a1,k0,zero
a0800ee8:	0c200c7e 	jal	a08031f8 <c_simple_handler>
a0800eec:	00000000 	nop
a0800ef0:	401a6800 	mfc0	k0,$13
a0800ef4:	335bff00 	andi	k1,k0,0xff00
a0800ef8:	035bd026 	xor	k0,k0,k1
a0800efc:	409a6800 	mtc0	k0,$13
a0800f00:	3c1aa080 	lui	k0,0xa080
a0800f04:	275a3a8c 	addiu	k0,k0,14988
a0800f08:	8f5b0000 	lw	k1,0(k0)
a0800f0c:	237bffff 	addi	k1,k1,-1
a0800f10:	1760018c 	bnez	k1,a0801544 <panicl>
a0800f14:	00000000 	nop
a0800f18:	00000000 	nop
a0800f1c:	af5b0000 	sw	k1,0(k0)
a0800f20:	3c1da080 	lui	sp,0xa080
a0800f24:	27bd3b20 	addiu	sp,sp,15136
a0800f28:	8fbd0000 	lw	sp,0(sp)
a0800f2c:	23bd0008 	addi	sp,sp,8
a0800f30:	40086000 	mfc0	t0,$12
a0800f34:	35080003 	ori	t0,t0,0x3
a0800f38:	39080003 	xori	t0,t0,0x3
a0800f3c:	40886000 	mtc0	t0,$12
a0800f40:	8fa20080 	lw	v0,128(sp)
a0800f44:	3403ff00 	li	v1,0xff00
a0800f48:	01034024 	and	t0,t0,v1
a0800f4c:	00031827 	nor	v1,zero,v1
a0800f50:	00431024 	and	v0,v0,v1
a0800f54:	00481025 	or	v0,v0,t0
a0800f58:	40826000 	mtc0	v0,$12
a0800f5c:	8fa30088 	lw	v1,136(sp)
a0800f60:	00600013 	mtlo	v1
a0800f64:	8fa20084 	lw	v0,132(sp)
a0800f68:	8fa30094 	lw	v1,148(sp)
a0800f6c:	00400011 	mthi	v0
a0800f70:	40837000 	mtc0	v1,$14
a0800f74:	8fbf007c 	lw	ra,124(sp)
a0800f78:	8fbe0078 	lw	s8,120(sp)
a0800f7c:	8fbc0070 	lw	gp,112(sp)
a0800f80:	8fb90064 	lw	t9,100(sp)
a0800f84:	8fb80060 	lw	t8,96(sp)
a0800f88:	8fb7005c 	lw	s7,92(sp)
a0800f8c:	8fb60058 	lw	s6,88(sp)
a0800f90:	8fb50054 	lw	s5,84(sp)
a0800f94:	8fb40050 	lw	s4,80(sp)
a0800f98:	8fb3004c 	lw	s3,76(sp)
a0800f9c:	8fb20048 	lw	s2,72(sp)
a0800fa0:	8fb10044 	lw	s1,68(sp)
a0800fa4:	8fb00040 	lw	s0,64(sp)
a0800fa8:	8faf003c 	lw	t7,60(sp)
a0800fac:	8fae0038 	lw	t6,56(sp)
a0800fb0:	8fad0034 	lw	t5,52(sp)
a0800fb4:	8fac0030 	lw	t4,48(sp)
a0800fb8:	8fab002c 	lw	t3,44(sp)
a0800fbc:	8faa0028 	lw	t2,40(sp)
a0800fc0:	8fa90024 	lw	t1,36(sp)
a0800fc4:	8fa80020 	lw	t0,32(sp)
a0800fc8:	8fa7001c 	lw	a3,28(sp)
a0800fcc:	8fa60018 	lw	a2,24(sp)
a0800fd0:	8fa50014 	lw	a1,20(sp)
a0800fd4:	8fa40010 	lw	a0,16(sp)
a0800fd8:	8fa3000c 	lw	v1,12(sp)
a0800fdc:	8fa20008 	lw	v0,8(sp)
a0800fe0:	8fa10004 	lw	at,4(sp)
a0800fe4:	8fbd0074 	lw	sp,116(sp)
a0800fe8:	08200374 	j	a0800dd0 <return_from_exception>
a0800fec:	00000000 	nop

a0800ff0 <handle_syscall>:
a0800ff0:	03a0d820 	add	k1,sp,zero
a0800ff4:	3c1aa080 	lui	k0,0xa080
a0800ff8:	275a3b20 	addiu	k0,k0,15136
a0800ffc:	8f5d0000 	lw	sp,0(k0)
a0801000:	23bd00a4 	addi	sp,sp,164
a0801004:	401a6000 	mfc0	k0,$12
a0801008:	001ad0c0 	sll	k0,k0,0x3
a080100c:	07400002 	bltz	k0,a0801018 <handle_syscall+0x28>
a0801010:	00000000 	nop
a0801014:	00000000 	nop
a0801018:	afbb0074 	sw	k1,116(sp)
a080101c:	afa20008 	sw	v0,8(sp)
a0801020:	401a6000 	mfc0	k0,$12
a0801024:	afba0080 	sw	k0,128(sp)
a0801028:	401a6800 	mfc0	k0,$13
a080102c:	afba0090 	sw	k0,144(sp)
a0801030:	401a7000 	mfc0	k0,$14
a0801034:	afba0094 	sw	k0,148(sp)
a0801038:	401a4000 	mfc0	k0,$8
a080103c:	afba008c 	sw	k0,140(sp)
a0801040:	0000d010 	mfhi	k0
a0801044:	afba0084 	sw	k0,132(sp)
a0801048:	0000d012 	mflo	k0
a080104c:	afba0088 	sw	k0,136(sp)
a0801050:	afa00000 	sw	zero,0(sp)
a0801054:	afa10004 	sw	at,4(sp)
a0801058:	afa3000c 	sw	v1,12(sp)
a080105c:	afa40010 	sw	a0,16(sp)
a0801060:	afa50014 	sw	a1,20(sp)
a0801064:	afa60018 	sw	a2,24(sp)
a0801068:	afa7001c 	sw	a3,28(sp)
a080106c:	afa80020 	sw	t0,32(sp)
a0801070:	afa90024 	sw	t1,36(sp)
a0801074:	afaa0028 	sw	t2,40(sp)
a0801078:	afab002c 	sw	t3,44(sp)
a080107c:	afac0030 	sw	t4,48(sp)
a0801080:	afad0034 	sw	t5,52(sp)
a0801084:	afae0038 	sw	t6,56(sp)
a0801088:	afaf003c 	sw	t7,60(sp)
a080108c:	afb00040 	sw	s0,64(sp)
a0801090:	afb10044 	sw	s1,68(sp)
a0801094:	afb20048 	sw	s2,72(sp)
a0801098:	afb3004c 	sw	s3,76(sp)
a080109c:	afb40050 	sw	s4,80(sp)
a08010a0:	afb50054 	sw	s5,84(sp)
a08010a4:	afb60058 	sw	s6,88(sp)
a08010a8:	afb7005c 	sw	s7,92(sp)
a08010ac:	afb80060 	sw	t8,96(sp)
a08010b0:	afb90064 	sw	t9,100(sp)
a08010b4:	afba0068 	sw	k0,104(sp)
a08010b8:	afbb006c 	sw	k1,108(sp)
a08010bc:	afbc0070 	sw	gp,112(sp)
a08010c0:	afbe0078 	sw	s8,120(sp)
a08010c4:	afbf007c 	sw	ra,124(sp)
a08010c8:	0360e820 	add	sp,k1,zero
a08010cc:	00c03820 	add	a3,a2,zero
a08010d0:	00a03020 	add	a2,a1,zero
a08010d4:	00802820 	add	a1,a0,zero
a08010d8:	00402020 	add	a0,v0,zero
a08010dc:	0c200c9c 	jal	a0803270 <system_call_helper>
a08010e0:	00000000 	nop
a08010e4:	3c1aa080 	lui	k0,0xa080
a08010e8:	275a3a8c 	addiu	k0,k0,14988
a08010ec:	8f5b0000 	lw	k1,0(k0)
a08010f0:	237bffff 	addi	k1,k1,-1
a08010f4:	17600113 	bnez	k1,a0801544 <panicl>
a08010f8:	00000000 	nop
a08010fc:	00000000 	nop
a0801100:	af5b0000 	sw	k1,0(k0)
a0801104:	3c1da080 	lui	sp,0xa080
a0801108:	27bd3b20 	addiu	sp,sp,15136
a080110c:	8fbd0000 	lw	sp,0(sp)
a0801110:	23bd00a4 	addi	sp,sp,164
a0801114:	40086000 	mfc0	t0,$12
a0801118:	35080003 	ori	t0,t0,0x3
a080111c:	39080003 	xori	t0,t0,0x3
a0801120:	40886000 	mtc0	t0,$12
a0801124:	8fa20080 	lw	v0,128(sp)
a0801128:	3403ff00 	li	v1,0xff00
a080112c:	01034024 	and	t0,t0,v1
a0801130:	00031827 	nor	v1,zero,v1
a0801134:	00431024 	and	v0,v0,v1
a0801138:	00481025 	or	v0,v0,t0
a080113c:	40826000 	mtc0	v0,$12
a0801140:	8fa30088 	lw	v1,136(sp)
a0801144:	00600013 	mtlo	v1
a0801148:	8fa20084 	lw	v0,132(sp)
a080114c:	8fa30094 	lw	v1,148(sp)
a0801150:	00400011 	mthi	v0
a0801154:	40837000 	mtc0	v1,$14
a0801158:	8fbf007c 	lw	ra,124(sp)
a080115c:	8fbe0078 	lw	s8,120(sp)
a0801160:	8fbc0070 	lw	gp,112(sp)
a0801164:	8fb90064 	lw	t9,100(sp)
a0801168:	8fb80060 	lw	t8,96(sp)
a080116c:	8fb7005c 	lw	s7,92(sp)
a0801170:	8fb60058 	lw	s6,88(sp)
a0801174:	8fb50054 	lw	s5,84(sp)
a0801178:	8fb40050 	lw	s4,80(sp)
a080117c:	8fb3004c 	lw	s3,76(sp)
a0801180:	8fb20048 	lw	s2,72(sp)
a0801184:	8fb10044 	lw	s1,68(sp)
a0801188:	8fb00040 	lw	s0,64(sp)
a080118c:	8faf003c 	lw	t7,60(sp)
a0801190:	8fae0038 	lw	t6,56(sp)
a0801194:	8fad0034 	lw	t5,52(sp)
a0801198:	8fac0030 	lw	t4,48(sp)
a080119c:	8fab002c 	lw	t3,44(sp)
a08011a0:	8faa0028 	lw	t2,40(sp)
a08011a4:	8fa90024 	lw	t1,36(sp)
a08011a8:	8fa80020 	lw	t0,32(sp)
a08011ac:	8fa7001c 	lw	a3,28(sp)
a08011b0:	8fa60018 	lw	a2,24(sp)
a08011b4:	8fa50014 	lw	a1,20(sp)
a08011b8:	8fa40010 	lw	a0,16(sp)
a08011bc:	8fa3000c 	lw	v1,12(sp)
a08011c0:	8fa20008 	lw	v0,8(sp)
a08011c4:	8fa10004 	lw	at,4(sp)
a08011c8:	8fbd0074 	lw	sp,116(sp)
a08011cc:	08200374 	j	a0800dd0 <return_from_exception>
a08011d0:	00000000 	nop

a08011d4 <handle_int>:
a08011d4:	03a0d820 	add	k1,sp,zero
a08011d8:	3c1aa080 	lui	k0,0xa080
a08011dc:	275a3b20 	addiu	k0,k0,15136
a08011e0:	8f5d0000 	lw	sp,0(k0)
a08011e4:	23bd00a4 	addi	sp,sp,164
a08011e8:	401a6000 	mfc0	k0,$12
a08011ec:	001ad0c0 	sll	k0,k0,0x3
a08011f0:	07400002 	bltz	k0,a08011fc <handle_int+0x28>
a08011f4:	00000000 	nop
a08011f8:	00000000 	nop
a08011fc:	afbb0074 	sw	k1,116(sp)
a0801200:	afa20008 	sw	v0,8(sp)
a0801204:	401a6000 	mfc0	k0,$12
a0801208:	afba0080 	sw	k0,128(sp)
a080120c:	401a6800 	mfc0	k0,$13
a0801210:	afba0090 	sw	k0,144(sp)
a0801214:	401a7000 	mfc0	k0,$14
a0801218:	afba0094 	sw	k0,148(sp)
a080121c:	401a4000 	mfc0	k0,$8
a0801220:	afba008c 	sw	k0,140(sp)
a0801224:	0000d010 	mfhi	k0
a0801228:	afba0084 	sw	k0,132(sp)
a080122c:	0000d012 	mflo	k0
a0801230:	afba0088 	sw	k0,136(sp)
a0801234:	afa00000 	sw	zero,0(sp)
a0801238:	afa10004 	sw	at,4(sp)
a080123c:	afa3000c 	sw	v1,12(sp)
a0801240:	afa40010 	sw	a0,16(sp)
a0801244:	afa50014 	sw	a1,20(sp)
a0801248:	afa60018 	sw	a2,24(sp)
a080124c:	afa7001c 	sw	a3,28(sp)
a0801250:	afa80020 	sw	t0,32(sp)
a0801254:	afa90024 	sw	t1,36(sp)
a0801258:	afaa0028 	sw	t2,40(sp)
a080125c:	afab002c 	sw	t3,44(sp)
a0801260:	afac0030 	sw	t4,48(sp)
a0801264:	afad0034 	sw	t5,52(sp)
a0801268:	afae0038 	sw	t6,56(sp)
a080126c:	afaf003c 	sw	t7,60(sp)
a0801270:	afb00040 	sw	s0,64(sp)
a0801274:	afb10044 	sw	s1,68(sp)
a0801278:	afb20048 	sw	s2,72(sp)
a080127c:	afb3004c 	sw	s3,76(sp)
a0801280:	afb40050 	sw	s4,80(sp)
a0801284:	afb50054 	sw	s5,84(sp)
a0801288:	afb60058 	sw	s6,88(sp)
a080128c:	afb7005c 	sw	s7,92(sp)
a0801290:	afb80060 	sw	t8,96(sp)
a0801294:	afb90064 	sw	t9,100(sp)
a0801298:	afba0068 	sw	k0,104(sp)
a080129c:	afbb006c 	sw	k1,108(sp)
a08012a0:	afbc0070 	sw	gp,112(sp)
a08012a4:	afbe0078 	sw	s8,120(sp)
a08012a8:	afbf007c 	sw	ra,124(sp)
a08012ac:	0360e820 	add	sp,k1,zero
a08012b0:	3c1aa080 	lui	k0,0xa080
a08012b4:	275a3a8c 	addiu	k0,k0,14988
a08012b8:	8f5b0000 	lw	k1,0(k0)
a08012bc:	17600091 	bnez	k1,a0801504 <panice>
a08012c0:	00000000 	nop
a08012c4:	00000000 	nop
a08012c8:	237b0001 	addi	k1,k1,1
a08012cc:	af5b0000 	sw	k1,0(k0)
a08012d0:	401a6800 	mfc0	k0,$13
a08012d4:	335aff00 	andi	k0,k0,0xff00
a08012d8:	735ad020 	0x735ad020
a08012dc:	3b5a0017 	xori	k0,k0,0x17
a08012e0:	241b0007 	li	k1,7
a08012e4:	175b0003 	bne	k0,k1,a08012f4 <do_nothing>
a08012e8:	00000000 	nop
a08012ec:	0c200c80 	jal	a0803200 <timer_irq>
a08012f0:	00000000 	nop

a08012f4 <do_nothing>:
a08012f4:	401a6800 	mfc0	k0,$13
a08012f8:	335aff00 	andi	k0,k0,0xff00
a08012fc:	0340d820 	add	k1,k0,zero
a0801300:	735ad020 	0x735ad020
a0801304:	3b5a0017 	xori	k0,k0,0x17
a0801308:	235a0008 	addi	k0,k0,8
a080130c:	24080001 	li	t0,1
a0801310:	0348d004 	sllv	k0,t0,k0
a0801314:	035bd026 	xor	k0,k0,k1
a0801318:	409a6800 	mtc0	k0,$13
a080131c:	3c1aa080 	lui	k0,0xa080
a0801320:	275a3a8c 	addiu	k0,k0,14988
a0801324:	8f5b0000 	lw	k1,0(k0)
a0801328:	237bffff 	addi	k1,k1,-1
a080132c:	17600085 	bnez	k1,a0801544 <panicl>
a0801330:	00000000 	nop
a0801334:	00000000 	nop
a0801338:	af5b0000 	sw	k1,0(k0)
a080133c:	3c1da080 	lui	sp,0xa080
a0801340:	27bd3b20 	addiu	sp,sp,15136
a0801344:	8fbd0000 	lw	sp,0(sp)
a0801348:	23bd00a4 	addi	sp,sp,164
a080134c:	40086000 	mfc0	t0,$12
a0801350:	35080003 	ori	t0,t0,0x3
a0801354:	39080003 	xori	t0,t0,0x3
a0801358:	40886000 	mtc0	t0,$12
a080135c:	8fa20080 	lw	v0,128(sp)
a0801360:	3403ff00 	li	v1,0xff00
a0801364:	01034024 	and	t0,t0,v1
a0801368:	00031827 	nor	v1,zero,v1
a080136c:	00431024 	and	v0,v0,v1
a0801370:	00481025 	or	v0,v0,t0
a0801374:	40826000 	mtc0	v0,$12
a0801378:	8fa30088 	lw	v1,136(sp)
a080137c:	00600013 	mtlo	v1
a0801380:	8fa20084 	lw	v0,132(sp)
a0801384:	8fa30094 	lw	v1,148(sp)
a0801388:	00400011 	mthi	v0
a080138c:	40837000 	mtc0	v1,$14
a0801390:	8fbf007c 	lw	ra,124(sp)
a0801394:	8fbe0078 	lw	s8,120(sp)
a0801398:	8fbc0070 	lw	gp,112(sp)
a080139c:	8fb90064 	lw	t9,100(sp)
a08013a0:	8fb80060 	lw	t8,96(sp)
a08013a4:	8fb7005c 	lw	s7,92(sp)
a08013a8:	8fb60058 	lw	s6,88(sp)
a08013ac:	8fb50054 	lw	s5,84(sp)
a08013b0:	8fb40050 	lw	s4,80(sp)
a08013b4:	8fb3004c 	lw	s3,76(sp)
a08013b8:	8fb20048 	lw	s2,72(sp)
a08013bc:	8fb10044 	lw	s1,68(sp)
a08013c0:	8fb00040 	lw	s0,64(sp)
a08013c4:	8faf003c 	lw	t7,60(sp)
a08013c8:	8fae0038 	lw	t6,56(sp)
a08013cc:	8fad0034 	lw	t5,52(sp)
a08013d0:	8fac0030 	lw	t4,48(sp)
a08013d4:	8fab002c 	lw	t3,44(sp)
a08013d8:	8faa0028 	lw	t2,40(sp)
a08013dc:	8fa90024 	lw	t1,36(sp)
a08013e0:	8fa80020 	lw	t0,32(sp)
a08013e4:	8fa7001c 	lw	a3,28(sp)
a08013e8:	8fa60018 	lw	a2,24(sp)
a08013ec:	8fa50014 	lw	a1,20(sp)
a08013f0:	8fa40010 	lw	a0,16(sp)
a08013f4:	8fa3000c 	lw	v1,12(sp)
a08013f8:	8fa20008 	lw	v0,8(sp)
a08013fc:	8fa10004 	lw	at,4(sp)
a0801400:	8fbd0074 	lw	sp,116(sp)
a0801404:	08200374 	j	a0800dd0 <return_from_exception>
a0801408:	00000000 	nop

a080140c <ret>:
a080140c:	3c1aa080 	lui	k0,0xa080
a0801410:	275a3a8c 	addiu	k0,k0,14988
a0801414:	8f5b0000 	lw	k1,0(k0)
a0801418:	237bffff 	addi	k1,k1,-1
a080141c:	17600049 	bnez	k1,a0801544 <panicl>
a0801420:	00000000 	nop
a0801424:	00000000 	nop
a0801428:	af5b0000 	sw	k1,0(k0)
a080142c:	42000018 	eret

a0801430 <get_cp0_status>:
a0801430:	40026000 	mfc0	v0,$12
a0801434:	03e00008 	jr	ra
a0801438:	00000000 	nop

a080143c <set_cp0_status>:
a080143c:	40846000 	mtc0	a0,$12
a0801440:	03e00008 	jr	ra
a0801444:	00000000 	nop

a0801448 <enter_critical>:
a0801448:	401a6000 	mfc0	k0,$12
a080144c:	3c1b1000 	lui	k1,0x1000
a0801450:	377b0001 	ori	k1,k1,0x1
a0801454:	035bd025 	or	k0,k0,k1
a0801458:	3b5a0001 	xori	k0,k0,0x1
a080145c:	409a6000 	mtc0	k0,$12
a0801460:	3c1aa080 	lui	k0,0xa080
a0801464:	275a3a8c 	addiu	k0,k0,14988
a0801468:	8f5b0000 	lw	k1,0(k0)
a080146c:	17600025 	bnez	k1,a0801504 <panice>
a0801470:	00000000 	nop
a0801474:	00000000 	nop
a0801478:	237b0001 	addi	k1,k1,1
a080147c:	af5b0000 	sw	k1,0(k0)
a0801480:	03e00008 	jr	ra
a0801484:	00000000 	nop

a0801488 <leave_critical>:
a0801488:	3c1aa080 	lui	k0,0xa080
a080148c:	275a3a8c 	addiu	k0,k0,14988
a0801490:	8f5b0000 	lw	k1,0(k0)
a0801494:	237bffff 	addi	k1,k1,-1
a0801498:	1760002a 	bnez	k1,a0801544 <panicl>
a080149c:	00000000 	nop
a08014a0:	00000000 	nop
a08014a4:	af5b0000 	sw	k1,0(k0)
a08014a8:	401a6000 	mfc0	k0,$12
a08014ac:	3c1b1000 	lui	k1,0x1000
a08014b0:	377b0001 	ori	k1,k1,0x1
a08014b4:	035bd025 	or	k0,k0,k1
a08014b8:	409a6000 	mtc0	k0,$12
a08014bc:	03e00008 	jr	ra
a08014c0:	00000000 	nop

a08014c4 <panic>:
a08014c4:	401a6000 	mfc0	k0,$12
a08014c8:	3c1b1000 	lui	k1,0x1000
a08014cc:	377b0001 	ori	k1,k1,0x1
a08014d0:	035bd025 	or	k0,k0,k1
a08014d4:	3b5a0001 	xori	k0,k0,0x1
a08014d8:	409a6000 	mtc0	k0,$12
a08014dc:	201a2710 	addi	k0,zero,10000

a08014e0 <P1>:
a08014e0:	235affff 	addi	k0,k0,-1
a08014e4:	1740fffe 	bnez	k0,a08014e0 <P1>
a08014e8:	00000000 	nop
a08014ec:	201a0050 	addi	k0,zero,80
a08014f0:	3c1bbfe4 	lui	k1,0xbfe4
a08014f4:	377b8000 	ori	k1,k1,0x8000
a08014f8:	a37a0000 	sb	k0,0(k1)
a08014fc:	08200531 	j	a08014c4 <panic>
a0801500:	00000000 	nop

a0801504 <panice>:
a0801504:	401a6000 	mfc0	k0,$12
a0801508:	3c1b1000 	lui	k1,0x1000
a080150c:	377b0001 	ori	k1,k1,0x1
a0801510:	035bd025 	or	k0,k0,k1
a0801514:	3b5a0001 	xori	k0,k0,0x1
a0801518:	409a6000 	mtc0	k0,$12
a080151c:	201a2710 	addi	k0,zero,10000

a0801520 <P2>:
a0801520:	235affff 	addi	k0,k0,-1
a0801524:	1740fffe 	bnez	k0,a0801520 <P2>
a0801528:	00000000 	nop
a080152c:	201a0045 	addi	k0,zero,69
a0801530:	3c1bbfe4 	lui	k1,0xbfe4
a0801534:	377b8000 	ori	k1,k1,0x8000
a0801538:	a37a0000 	sb	k0,0(k1)
a080153c:	08200531 	j	a08014c4 <panic>
a0801540:	00000000 	nop

a0801544 <panicl>:
a0801544:	401a6000 	mfc0	k0,$12
a0801548:	3c1b1000 	lui	k1,0x1000
a080154c:	377b0001 	ori	k1,k1,0x1
a0801550:	035bd025 	or	k0,k0,k1
a0801554:	3b5a0001 	xori	k0,k0,0x1
a0801558:	409a6000 	mtc0	k0,$12
a080155c:	201a2710 	addi	k0,zero,10000

a0801560 <P3>:
a0801560:	235affff 	addi	k0,k0,-1
a0801564:	1740fffe 	bnez	k0,a0801560 <P3>
a0801568:	00000000 	nop
a080156c:	201a004c 	addi	k0,zero,76
a0801570:	3c1bbfe4 	lui	k1,0xbfe4
a0801574:	377b8000 	ori	k1,k1,0x8000
a0801578:	a37a0000 	sb	k0,0(k1)
a080157c:	08200531 	j	a08014c4 <panic>
a0801580:	00000000 	nop

a0801584 <infinite_loop>:
a0801584:	08200561 	j	a0801584 <infinite_loop>
a0801588:	00000000 	nop
a080158c:	00000000 	nop

a0801590 <printf_c>:
a0801590:	27bdffe0 	addiu	sp,sp,-32
a0801594:	afb10014 	sw	s1,20(sp)
a0801598:	afb00010 	sw	s0,16(sp)
a080159c:	afbf0018 	sw	ra,24(sp)
a08015a0:	8ca20000 	lw	v0,0(a1)
a08015a4:	00063600 	sll	a2,a2,0x18
a08015a8:	00a08021 	move	s0,a1
a08015ac:	00808821 	move	s1,a0
a08015b0:	04400030 	bltz	v0,a0801674 <printf_c+0xe4>
a08015b4:	00063603 	sra	a2,a2,0x18
a08015b8:	2402000a 	li	v0,10
a08015bc:	10c20024 	beq	a2,v0,a0801650 <printf_c+0xc0>
a08015c0:	28c2000b 	slti	v0,a2,11
a08015c4:	1440000f 	bnez	v0,a0801604 <printf_c+0x74>
a08015c8:	24020009 	li	v0,9
a08015cc:	2402000d 	li	v0,13
a08015d0:	50c20023 	beql	a2,v0,a0801660 <printf_c+0xd0>
a08015d4:	ae000000 	sw	zero,0(s0)
a08015d8:	8e240000 	lw	a0,0(s1)
a08015dc:	0c2001f3 	jal	a08007cc <print_char>
a08015e0:	8e050000 	lw	a1,0(s0)
a08015e4:	8e030000 	lw	v1,0(s0)
a08015e8:	24630001 	addiu	v1,v1,1
a08015ec:	ae030000 	sw	v1,0(s0)
a08015f0:	8fbf0018 	lw	ra,24(sp)
a08015f4:	8fb10014 	lw	s1,20(sp)
a08015f8:	8fb00010 	lw	s0,16(sp)
a08015fc:	03e00008 	jr	ra
a0801600:	27bd0020 	addiu	sp,sp,32
a0801604:	54c2fff5 	bnel	a2,v0,a08015dc <printf_c+0x4c>
a0801608:	8e240000 	lw	a0,0(s1)
a080160c:	02202021 	move	a0,s1
a0801610:	02002821 	move	a1,s0
a0801614:	0c200564 	jal	a0801590 <printf_c>
a0801618:	24060020 	li	a2,32
a080161c:	8e020000 	lw	v0,0(s0)
a0801620:	30420007 	andi	v0,v0,0x7
a0801624:	1040fff2 	beqz	v0,a08015f0 <printf_c+0x60>
a0801628:	02202021 	move	a0,s1
a080162c:	02002821 	move	a1,s0
a0801630:	0c200564 	jal	a0801590 <printf_c>
a0801634:	24060020 	li	a2,32
a0801638:	8e020000 	lw	v0,0(s0)
a080163c:	30420007 	andi	v0,v0,0x7
a0801640:	1440fff3 	bnez	v0,a0801610 <printf_c+0x80>
a0801644:	02202021 	move	a0,s1
a0801648:	0820057d 	j	a08015f4 <printf_c+0x64>
a080164c:	8fbf0018 	lw	ra,24(sp)
a0801650:	8e220000 	lw	v0,0(s1)
a0801654:	24420001 	addiu	v0,v0,1
a0801658:	ae220000 	sw	v0,0(s1)
a080165c:	ae000000 	sw	zero,0(s0)
a0801660:	8fbf0018 	lw	ra,24(sp)
a0801664:	8fb10014 	lw	s1,20(sp)
a0801668:	8fb00010 	lw	s0,16(sp)
a080166c:	03e00008 	jr	ra
a0801670:	27bd0020 	addiu	sp,sp,32
a0801674:	0820056e 	j	a08015b8 <printf_c+0x28>
a0801678:	aca00000 	sw	zero,0(a1)

a080167c <printf_u>:
a080167c:	27bdffd0 	addiu	sp,sp,-48
a0801680:	3c02cccc 	lui	v0,0xcccc
a0801684:	afb20028 	sw	s2,40(sp)
a0801688:	afb10024 	sw	s1,36(sp)
a080168c:	afb00020 	sw	s0,32(sp)
a0801690:	00809021 	move	s2,a0
a0801694:	afbf002c 	sw	ra,44(sp)
a0801698:	00a08821 	move	s1,a1
a080169c:	a3a00010 	sb	zero,16(sp)
a08016a0:	3444cccd 	ori	a0,v0,0xcccd
a08016a4:	27b00010 	addiu	s0,sp,16
a08016a8:	00c40019 	multu	a2,a0
a08016ac:	26100001 	addiu	s0,s0,1
a08016b0:	00001810 	mfhi	v1
a08016b4:	000318c2 	srl	v1,v1,0x3
a08016b8:	00031080 	sll	v0,v1,0x2
a08016bc:	00431021 	addu	v0,v0,v1
a08016c0:	00021040 	sll	v0,v0,0x1
a08016c4:	00c21023 	subu	v0,a2,v0
a08016c8:	24420030 	addiu	v0,v0,48
a08016cc:	a2020000 	sb	v0,0(s0)
a08016d0:	1460fff5 	bnez	v1,a08016a8 <printf_u+0x2c>
a08016d4:	00603021 	move	a2,v1
a08016d8:	00023600 	sll	a2,v0,0x18
a08016dc:	082005bd 	j	a08016f4 <printf_u+0x78>
a08016e0:	00063603 	sra	a2,a2,0x18
a08016e4:	02402021 	move	a0,s2
a08016e8:	0c200564 	jal	a0801590 <printf_c>
a08016ec:	02202821 	move	a1,s1
a08016f0:	82060000 	lb	a2,0(s0)
a08016f4:	14c0fffb 	bnez	a2,a08016e4 <printf_u+0x68>
a08016f8:	2610ffff 	addiu	s0,s0,-1
a08016fc:	8fbf002c 	lw	ra,44(sp)
a0801700:	8fb20028 	lw	s2,40(sp)
a0801704:	8fb10024 	lw	s1,36(sp)
a0801708:	8fb00020 	lw	s0,32(sp)
a080170c:	03e00008 	jr	ra
a0801710:	27bd0030 	addiu	sp,sp,48

a0801714 <printf>:
a0801714:	27bdffc8 	addiu	sp,sp,-56
a0801718:	afb3001c 	sw	s3,28(sp)
a080171c:	afb10014 	sw	s1,20(sp)
a0801720:	afbf0030 	sw	ra,48(sp)
a0801724:	afb7002c 	sw	s7,44(sp)
a0801728:	afb60028 	sw	s6,40(sp)
a080172c:	afb50024 	sw	s5,36(sp)
a0801730:	afb40020 	sw	s4,32(sp)
a0801734:	afb20018 	sw	s2,24(sp)
a0801738:	afb00010 	sw	s0,16(sp)
a080173c:	afa40038 	sw	a0,56(sp)
a0801740:	afa5003c 	sw	a1,60(sp)
a0801744:	afa70044 	sw	a3,68(sp)
a0801748:	afa60040 	sw	a2,64(sp)
a080174c:	00c08821 	move	s1,a2
a0801750:	80c60000 	lb	a2,0(a2)
a0801754:	10c0001c 	beqz	a2,a08017c8 <printf+0xb4>
a0801758:	27b30044 	addiu	s3,sp,68
a080175c:	27b5003c 	addiu	s5,sp,60
a0801760:	02a0b821 	move	s7,s5
a0801764:	02a0b021 	move	s6,s5
a0801768:	24020025 	li	v0,37
a080176c:	14c20028 	bne	a2,v0,a0801810 <printf+0xfc>
a0801770:	27a40038 	addiu	a0,sp,56
a0801774:	26310001 	addiu	s1,s1,1
a0801778:	92260000 	lbu	a2,0(s1)
a080177c:	24020073 	li	v0,115
a0801780:	00061e00 	sll	v1,a2,0x18
a0801784:	00031e03 	sra	v1,v1,0x18
a0801788:	10620052 	beq	v1,v0,a08018d4 <printf+0x1c0>
a080178c:	28620074 	slti	v0,v1,116
a0801790:	10400018 	beqz	v0,a08017f4 <printf+0xe0>
a0801794:	24020075 	li	v0,117
a0801798:	24020063 	li	v0,99
a080179c:	1062005a 	beq	v1,v0,a0801908 <printf+0x1f4>
a08017a0:	28620064 	slti	v0,v1,100
a08017a4:	5040002b 	beqzl	v0,a0801854 <printf+0x140>
a08017a8:	24020064 	li	v0,100
a08017ac:	14600016 	bnez	v1,a0801808 <printf+0xf4>
a08017b0:	00063600 	sll	a2,a2,0x18
a08017b4:	2631ffff 	addiu	s1,s1,-1
a08017b8:	26310001 	addiu	s1,s1,1
a08017bc:	82260000 	lb	a2,0(s1)
a08017c0:	14c0ffea 	bnez	a2,a080176c <printf+0x58>
a08017c4:	24020025 	li	v0,37
a08017c8:	8fbf0030 	lw	ra,48(sp)
a08017cc:	8fb7002c 	lw	s7,44(sp)
a08017d0:	8fb60028 	lw	s6,40(sp)
a08017d4:	8fb50024 	lw	s5,36(sp)
a08017d8:	8fb40020 	lw	s4,32(sp)
a08017dc:	8fb3001c 	lw	s3,28(sp)
a08017e0:	8fb20018 	lw	s2,24(sp)
a08017e4:	8fb10014 	lw	s1,20(sp)
a08017e8:	8fb00010 	lw	s0,16(sp)
a08017ec:	03e00008 	jr	ra
a08017f0:	27bd0038 	addiu	sp,sp,56
a08017f4:	10620049 	beq	v1,v0,a080191c <printf+0x208>
a08017f8:	24020078 	li	v0,120
a08017fc:	50620020 	beql	v1,v0,a0801880 <printf+0x16c>
a0801800:	8e720000 	lw	s2,0(s3)
a0801804:	00063600 	sll	a2,a2,0x18
a0801808:	00063603 	sra	a2,a2,0x18
a080180c:	27a40038 	addiu	a0,sp,56
a0801810:	27a5003c 	addiu	a1,sp,60
a0801814:	0c200564 	jal	a0801590 <printf_c>
a0801818:	26310001 	addiu	s1,s1,1
a080181c:	82260000 	lb	a2,0(s1)
a0801820:	14c0ffd2 	bnez	a2,a080176c <printf+0x58>
a0801824:	24020025 	li	v0,37
a0801828:	8fbf0030 	lw	ra,48(sp)
a080182c:	8fb7002c 	lw	s7,44(sp)
a0801830:	8fb60028 	lw	s6,40(sp)
a0801834:	8fb50024 	lw	s5,36(sp)
a0801838:	8fb40020 	lw	s4,32(sp)
a080183c:	8fb3001c 	lw	s3,28(sp)
a0801840:	8fb20018 	lw	s2,24(sp)
a0801844:	8fb10014 	lw	s1,20(sp)
a0801848:	8fb00010 	lw	s0,16(sp)
a080184c:	03e00008 	jr	ra
a0801850:	27bd0038 	addiu	sp,sp,56
a0801854:	1462ffec 	bne	v1,v0,a0801808 <printf+0xf4>
a0801858:	00063600 	sll	a2,a2,0x18
a080185c:	8e700000 	lw	s0,0(s3)
a0801860:	06000035 	bltz	s0,a0801938 <printf+0x224>
a0801864:	26730004 	addiu	s3,s3,4
a0801868:	02003021 	move	a2,s0
a080186c:	27a40038 	addiu	a0,sp,56
a0801870:	0c20059f 	jal	a080167c <printf_u>
a0801874:	02e02821 	move	a1,s7
a0801878:	08200607 	j	a080181c <printf+0x108>
a080187c:	26310001 	addiu	s1,s1,1
a0801880:	27b40038 	addiu	s4,sp,56
a0801884:	26730004 	addiu	s3,s3,4
a0801888:	24100007 	li	s0,7
a080188c:	00101080 	sll	v0,s0,0x2
a0801890:	00521006 	srlv	v0,s2,v0
a0801894:	3046000f 	andi	a2,v0,0xf
a0801898:	24c40057 	addiu	a0,a2,87
a080189c:	28c2000a 	slti	v0,a2,10
a08018a0:	24c30030 	addiu	v1,a2,48
a08018a4:	10400002 	beqz	v0,a08018b0 <printf+0x19c>
a08018a8:	00043600 	sll	a2,a0,0x18
a08018ac:	00033600 	sll	a2,v1,0x18
a08018b0:	2610ffff 	addiu	s0,s0,-1
a08018b4:	00063603 	sra	a2,a2,0x18
a08018b8:	02802021 	move	a0,s4
a08018bc:	0c200564 	jal	a0801590 <printf_c>
a08018c0:	02c02821 	move	a1,s6
a08018c4:	0601fff2 	bgez	s0,a0801890 <printf+0x17c>
a08018c8:	00101080 	sll	v0,s0,0x2
a08018cc:	08200607 	j	a080181c <printf+0x108>
a08018d0:	26310001 	addiu	s1,s1,1
a08018d4:	8e620000 	lw	v0,0(s3)
a08018d8:	27b20038 	addiu	s2,sp,56
a08018dc:	26730004 	addiu	s3,s3,4
a08018e0:	0820063d 	j	a08018f4 <printf+0x1e0>
a08018e4:	00408021 	move	s0,v0
a08018e8:	02a02821 	move	a1,s5
a08018ec:	0c200564 	jal	a0801590 <printf_c>
a08018f0:	26100001 	addiu	s0,s0,1
a08018f4:	82060000 	lb	a2,0(s0)
a08018f8:	14c0fffb 	bnez	a2,a08018e8 <printf+0x1d4>
a08018fc:	02402021 	move	a0,s2
a0801900:	08200607 	j	a080181c <printf+0x108>
a0801904:	26310001 	addiu	s1,s1,1
a0801908:	82660000 	lb	a2,0(s3)
a080190c:	27a40038 	addiu	a0,sp,56
a0801910:	27a5003c 	addiu	a1,sp,60
a0801914:	08200605 	j	a0801814 <printf+0x100>
a0801918:	26730004 	addiu	s3,s3,4
a080191c:	8e660000 	lw	a2,0(s3)
a0801920:	27a40038 	addiu	a0,sp,56
a0801924:	27a5003c 	addiu	a1,sp,60
a0801928:	0c20059f 	jal	a080167c <printf_u>
a080192c:	26730004 	addiu	s3,s3,4
a0801930:	08200607 	j	a080181c <printf+0x108>
a0801934:	26310001 	addiu	s1,s1,1
a0801938:	27a40038 	addiu	a0,sp,56
a080193c:	02e02821 	move	a1,s7
a0801940:	0c200564 	jal	a0801590 <printf_c>
a0801944:	2406002d 	li	a2,45
a0801948:	27a40038 	addiu	a0,sp,56
a080194c:	02e02821 	move	a1,s7
a0801950:	0c20059f 	jal	a080167c <printf_u>
a0801954:	00103023 	negu	a2,s0
a0801958:	08200607 	j	a080181c <printf+0x108>
a080195c:	26310001 	addiu	s1,s1,1

a0801960 <myoutput>:
a0801960:	27bdffd8 	addiu	sp,sp,-40
a0801964:	24020001 	li	v0,1
a0801968:	afb40020 	sw	s4,32(sp)
a080196c:	afb20018 	sw	s2,24(sp)
a0801970:	afbf0024 	sw	ra,36(sp)
a0801974:	afb3001c 	sw	s3,28(sp)
a0801978:	afb10014 	sw	s1,20(sp)
a080197c:	afb00010 	sw	s0,16(sp)
a0801980:	00c09021 	move	s2,a2
a0801984:	10c20023 	beq	a2,v0,a0801a14 <myoutput+0xb4>
a0801988:	00a0a021 	move	s4,a1
a080198c:	1a400019 	blez	s2,a08019f4 <myoutput+0x94>
a0801990:	00008821 	move	s1,zero
a0801994:	0820066d 	j	a08019b4 <myoutput+0x54>
a0801998:	2413000a 	li	s3,10
a080199c:	00032600 	sll	a0,v1,0x18
a08019a0:	0c2001f0 	jal	a08007c0 <printcharc>
a08019a4:	00042603 	sra	a0,a0,0x18
a08019a8:	0232182a 	slt	v1,s1,s2
a08019ac:	10600012 	beqz	v1,a08019f8 <myoutput+0x98>
a08019b0:	8fbf0024 	lw	ra,36(sp)
a08019b4:	02918021 	addu	s0,s4,s1
a08019b8:	92030000 	lbu	v1,0(s0)
a08019bc:	26310001 	addiu	s1,s1,1
a08019c0:	00031600 	sll	v0,v1,0x18
a08019c4:	00021603 	sra	v0,v0,0x18
a08019c8:	1453fff4 	bne	v0,s3,a080199c <myoutput+0x3c>
a08019cc:	2404000d 	li	a0,13
a08019d0:	0c2001f0 	jal	a08007c0 <printcharc>
a08019d4:	00000000 	nop
a08019d8:	92030000 	lbu	v1,0(s0)
a08019dc:	00032600 	sll	a0,v1,0x18
a08019e0:	0c2001f0 	jal	a08007c0 <printcharc>
a08019e4:	00042603 	sra	a0,a0,0x18
a08019e8:	0232182a 	slt	v1,s1,s2
a08019ec:	1460fff2 	bnez	v1,a08019b8 <myoutput+0x58>
a08019f0:	02918021 	addu	s0,s4,s1
a08019f4:	8fbf0024 	lw	ra,36(sp)
a08019f8:	8fb40020 	lw	s4,32(sp)
a08019fc:	8fb3001c 	lw	s3,28(sp)
a0801a00:	8fb20018 	lw	s2,24(sp)
a0801a04:	8fb10014 	lw	s1,20(sp)
a0801a08:	8fb00010 	lw	s0,16(sp)
a0801a0c:	03e00008 	jr	ra
a0801a10:	27bd0028 	addiu	sp,sp,40
a0801a14:	80a20000 	lb	v0,0(a1)
a0801a18:	1440ffdc 	bnez	v0,a080198c <myoutput+0x2c>
a0801a1c:	8fbf0024 	lw	ra,36(sp)
a0801a20:	8fb40020 	lw	s4,32(sp)
a0801a24:	8fb3001c 	lw	s3,28(sp)
a0801a28:	8fb20018 	lw	s2,24(sp)
a0801a2c:	8fb10014 	lw	s1,20(sp)
a0801a30:	8fb00010 	lw	s0,16(sp)
a0801a34:	03e00008 	jr	ra
a0801a38:	27bd0028 	addiu	sp,sp,40

a0801a3c <printk>:
a0801a3c:	27bdffe8 	addiu	sp,sp,-24
a0801a40:	00801021 	move	v0,a0
a0801a44:	3c04a080 	lui	a0,0xa080
a0801a48:	afa5001c 	sw	a1,28(sp)
a0801a4c:	afa60020 	sw	a2,32(sp)
a0801a50:	afa70024 	sw	a3,36(sp)
a0801a54:	24841960 	addiu	a0,a0,6496
a0801a58:	27a7001c 	addiu	a3,sp,28
a0801a5c:	00403021 	move	a2,v0
a0801a60:	afbf0010 	sw	ra,16(sp)
a0801a64:	0c200766 	jal	a0801d98 <lp_Print>
a0801a68:	00002821 	move	a1,zero
a0801a6c:	8fbf0010 	lw	ra,16(sp)
a0801a70:	03e00008 	jr	ra
a0801a74:	27bd0018 	addiu	sp,sp,24

a0801a78 <_panic>:
a0801a78:	27bdffe8 	addiu	sp,sp,-24
a0801a7c:	00801021 	move	v0,a0
a0801a80:	00a01821 	move	v1,a1
a0801a84:	3c04a080 	lui	a0,0xa080
a0801a88:	00402821 	move	a1,v0
a0801a8c:	afb00010 	sw	s0,16(sp)
a0801a90:	2484391c 	addiu	a0,a0,14620
a0801a94:	00c08021 	move	s0,a2
a0801a98:	00603021 	move	a2,v1
a0801a9c:	afbf0014 	sw	ra,20(sp)
a0801aa0:	0c20068f 	jal	a0801a3c <printk>
a0801aa4:	afa70024 	sw	a3,36(sp)
a0801aa8:	3c04a080 	lui	a0,0xa080
a0801aac:	24841960 	addiu	a0,a0,6496
a0801ab0:	02003021 	move	a2,s0
a0801ab4:	27a70024 	addiu	a3,sp,36
a0801ab8:	0c200766 	jal	a0801d98 <lp_Print>
a0801abc:	00002821 	move	a1,zero
a0801ac0:	3c04a080 	lui	a0,0xa080
a0801ac4:	0c20068f 	jal	a0801a3c <printk>
a0801ac8:	24843930 	addiu	a0,a0,14640
a0801acc:	082006b3 	j	a0801acc <_panic+0x54>
a0801ad0:	00000000 	nop
	...

a0801ae0 <PrintNum>:
a0801ae0:	8faa0010 	lw	t2,16(sp)
a0801ae4:	8fad0014 	lw	t5,20(sp)
a0801ae8:	8fac001c 	lw	t4,28(sp)
a0801aec:	83ab0018 	lb	t3,24(sp)
a0801af0:	00804821 	move	t1,a0
a0801af4:	00804021 	move	t0,a0
a0801af8:	00a6001b 	divu	zero,a1,a2
a0801afc:	14c00002 	bnez	a2,a0801b08 <PrintNum+0x28>
a0801b00:	00000000 	nop
a0801b04:	0007000d 	break	0x7
a0801b08:	00001810 	mfhi	v1
a0801b0c:	2862000a 	slti	v0,v1,10
a0801b10:	14400004 	bnez	v0,a0801b24 <PrintNum+0x44>
a0801b14:	24640030 	addiu	a0,v1,48
a0801b18:	24640037 	addiu	a0,v1,55
a0801b1c:	11800037 	beqz	t4,a0801bfc <PrintNum+0x11c>
a0801b20:	24620057 	addiu	v0,v1,87
a0801b24:	a1040000 	sb	a0,0(t0)
a0801b28:	00a6001b 	divu	zero,a1,a2
a0801b2c:	14c00002 	bnez	a2,a0801b38 <PrintNum+0x58>
a0801b30:	00000000 	nop
a0801b34:	0007000d 	break	0x7
a0801b38:	00001012 	mflo	v0
a0801b3c:	00002812 	mflo	a1
a0801b40:	1440ffed 	bnez	v0,a0801af8 <PrintNum+0x18>
a0801b44:	25080001 	addiu	t0,t0,1
a0801b48:	10e00005 	beqz	a3,a0801b60 <PrintNum+0x80>
a0801b4c:	01092823 	subu	a1,t0,t1
a0801b50:	2402002d 	li	v0,45
a0801b54:	a1020000 	sb	v0,0(t0)
a0801b58:	25080001 	addiu	t0,t0,1
a0801b5c:	01092823 	subu	a1,t0,t1
a0801b60:	0145102a 	slt	v0,t2,a1
a0801b64:	54400001 	bnezl	v0,a0801b6c <PrintNum+0x8c>
a0801b68:	00a05021 	move	t2,a1
a0801b6c:	55a00001 	bnezl	t5,a0801b74 <PrintNum+0x94>
a0801b70:	240b0020 	li	t3,32
a0801b74:	0007102b 	sltu	v0,zero,a3
a0801b78:	2da30001 	sltiu	v1,t5,1
a0801b7c:	00431024 	and	v0,v0,v1
a0801b80:	10400005 	beqz	v0,a0801b98 <PrintNum+0xb8>
a0801b84:	00aa102a 	slt	v0,a1,t2
a0801b88:	24020030 	li	v0,48
a0801b8c:	5162001d 	beql	t3,v0,a0801c04 <PrintNum+0x124>
a0801b90:	24a4ffff 	addiu	a0,a1,-1
a0801b94:	00aa102a 	slt	v0,a1,t2
a0801b98:	082006eb 	j	a0801bac <PrintNum+0xcc>
a0801b9c:	00a02021 	move	a0,a1
a0801ba0:	24840001 	addiu	a0,a0,1
a0801ba4:	008a102a 	slt	v0,a0,t2
a0801ba8:	a06b0000 	sb	t3,0(v1)
a0801bac:	1440fffc 	bnez	v0,a0801ba0 <PrintNum+0xc0>
a0801bb0:	01241821 	addu	v1,t1,a0
a0801bb4:	24a7ffff 	addiu	a3,a1,-1
a0801bb8:	15a00002 	bnez	t5,a0801bc4 <PrintNum+0xe4>
a0801bbc:	00004021 	move	t0,zero
a0801bc0:	2547ffff 	addiu	a3,t2,-1
a0801bc4:	18e0000b 	blez	a3,a0801bf4 <PrintNum+0x114>
a0801bc8:	00000000 	nop
a0801bcc:	01282021 	addu	a0,t1,t0
a0801bd0:	01272821 	addu	a1,t1,a3
a0801bd4:	80860000 	lb	a2,0(a0)
a0801bd8:	90a30000 	lbu	v1,0(a1)
a0801bdc:	25080001 	addiu	t0,t0,1
a0801be0:	24e7ffff 	addiu	a3,a3,-1
a0801be4:	0107102a 	slt	v0,t0,a3
a0801be8:	a0830000 	sb	v1,0(a0)
a0801bec:	1440fff7 	bnez	v0,a0801bcc <PrintNum+0xec>
a0801bf0:	a0a60000 	sb	a2,0(a1)
a0801bf4:	03e00008 	jr	ra
a0801bf8:	01401021 	move	v0,t2
a0801bfc:	082006ca 	j	a0801b28 <PrintNum+0x48>
a0801c00:	a1020000 	sb	v0,0(t0)
a0801c04:	2546ffff 	addiu	a2,t2,-1
a0801c08:	08200707 	j	a0801c1c <PrintNum+0x13c>
a0801c0c:	0086102a 	slt	v0,a0,a2
a0801c10:	24840001 	addiu	a0,a0,1
a0801c14:	0086102a 	slt	v0,a0,a2
a0801c18:	a06b0000 	sb	t3,0(v1)
a0801c1c:	1440fffc 	bnez	v0,a0801c10 <PrintNum+0x130>
a0801c20:	01241821 	addu	v1,t1,a0
a0801c24:	012a1821 	addu	v1,t1,t2
a0801c28:	2402002d 	li	v0,45
a0801c2c:	082006ed 	j	a0801bb4 <PrintNum+0xd4>
a0801c30:	a062ffff 	sb	v0,-1(v1)

a0801c34 <PrintChar>:
a0801c34:	00052e00 	sll	a1,a1,0x18
a0801c38:	18c0001b 	blez	a2,a0801ca8 <PrintChar+0x74>
a0801c3c:	00052e03 	sra	a1,a1,0x18
a0801c40:	10e0000d 	beqz	a3,a0801c78 <PrintChar+0x44>
a0801c44:	24c8ffff 	addiu	t0,a2,-1
a0801c48:	24070001 	li	a3,1
a0801c4c:	00e6102a 	slt	v0,a3,a2
a0801c50:	10400007 	beqz	v0,a0801c70 <PrintChar+0x3c>
a0801c54:	a0850000 	sb	a1,0(a0)
a0801c58:	24050020 	li	a1,32
a0801c5c:	00871821 	addu	v1,a0,a3
a0801c60:	24e70001 	addiu	a3,a3,1
a0801c64:	00e6102a 	slt	v0,a3,a2
a0801c68:	1440fffc 	bnez	v0,a0801c5c <PrintChar+0x28>
a0801c6c:	a0650000 	sb	a1,0(v1)
a0801c70:	03e00008 	jr	ra
a0801c74:	00c01021 	move	v0,a2
a0801c78:	19000007 	blez	t0,a0801c98 <PrintChar+0x64>
a0801c7c:	00003821 	move	a3,zero
a0801c80:	24090020 	li	t1,32
a0801c84:	00871821 	addu	v1,a0,a3
a0801c88:	24e70001 	addiu	a3,a3,1
a0801c8c:	00e8102a 	slt	v0,a3,t0
a0801c90:	1440fffc 	bnez	v0,a0801c84 <PrintChar+0x50>
a0801c94:	a0690000 	sb	t1,0(v1)
a0801c98:	00861021 	addu	v0,a0,a2
a0801c9c:	a045ffff 	sb	a1,-1(v0)
a0801ca0:	03e00008 	jr	ra
a0801ca4:	00c01021 	move	v0,a2
a0801ca8:	08200710 	j	a0801c40 <PrintChar+0xc>
a0801cac:	24060001 	li	a2,1

a0801cb0 <PrintString>:
a0801cb0:	80a20000 	lb	v0,0(a1)
a0801cb4:	00a05021 	move	t2,a1
a0801cb8:	00804821 	move	t1,a0
a0801cbc:	00002821 	move	a1,zero
a0801cc0:	08200734 	j	a0801cd0 <PrintString+0x20>
a0801cc4:	25430001 	addiu	v1,t2,1
a0801cc8:	24a50001 	addiu	a1,a1,1
a0801ccc:	24630001 	addiu	v1,v1,1
a0801cd0:	5440fffd 	bnezl	v0,a0801cc8 <PrintString+0x18>
a0801cd4:	90620000 	lbu	v0,0(v1)
a0801cd8:	00c5102a 	slt	v0,a2,a1
a0801cdc:	54400001 	bnezl	v0,a0801ce4 <PrintString+0x34>
a0801ce0:	00a03021 	move	a2,a1
a0801ce4:	10e00015 	beqz	a3,a0801d3c <PrintString+0x8c>
a0801ce8:	00c52023 	subu	a0,a2,a1
a0801cec:	18a00008 	blez	a1,a0801d10 <PrintString+0x60>
a0801cf0:	00003821 	move	a3,zero
a0801cf4:	01471021 	addu	v0,t2,a3
a0801cf8:	90440000 	lbu	a0,0(v0)
a0801cfc:	01271821 	addu	v1,t1,a3
a0801d00:	24e70001 	addiu	a3,a3,1
a0801d04:	00e5102a 	slt	v0,a3,a1
a0801d08:	1440fffa 	bnez	v0,a0801cf4 <PrintString+0x44>
a0801d0c:	a0640000 	sb	a0,0(v1)
a0801d10:	00a6102a 	slt	v0,a1,a2
a0801d14:	10400007 	beqz	v0,a0801d34 <PrintString+0x84>
a0801d18:	00a03821 	move	a3,a1
a0801d1c:	24040020 	li	a0,32
a0801d20:	01271821 	addu	v1,t1,a3
a0801d24:	24e70001 	addiu	a3,a3,1
a0801d28:	00e6102a 	slt	v0,a3,a2
a0801d2c:	1440fffc 	bnez	v0,a0801d20 <PrintString+0x70>
a0801d30:	a0640000 	sb	a0,0(v1)
a0801d34:	03e00008 	jr	ra
a0801d38:	00c01021 	move	v0,a2
a0801d3c:	18800007 	blez	a0,a0801d5c <PrintString+0xac>
a0801d40:	00003821 	move	a3,zero
a0801d44:	24080020 	li	t0,32
a0801d48:	01271821 	addu	v1,t1,a3
a0801d4c:	24e70001 	addiu	a3,a3,1
a0801d50:	00e4102a 	slt	v0,a3,a0
a0801d54:	1440fffc 	bnez	v0,a0801d48 <PrintString+0x98>
a0801d58:	a0680000 	sb	t0,0(v1)
a0801d5c:	0086102a 	slt	v0,a0,a2
a0801d60:	1040fff4 	beqz	v0,a0801d34 <PrintString+0x84>
a0801d64:	00803821 	move	a3,a0
a0801d68:	01461023 	subu	v0,t2,a2
a0801d6c:	00451021 	addu	v0,v0,a1
a0801d70:	00822821 	addu	a1,a0,v0
a0801d74:	90a20000 	lbu	v0,0(a1)
a0801d78:	01271821 	addu	v1,t1,a3
a0801d7c:	24e70001 	addiu	a3,a3,1
a0801d80:	00e6202a 	slt	a0,a3,a2
a0801d84:	a0620000 	sb	v0,0(v1)
a0801d88:	1480fffa 	bnez	a0,a0801d74 <PrintString+0xc4>
a0801d8c:	24a50001 	addiu	a1,a1,1
a0801d90:	03e00008 	jr	ra
a0801d94:	00c01021 	move	v0,a2

a0801d98 <lp_Print>:
a0801d98:	27bdfbe0 	addiu	sp,sp,-1056
a0801d9c:	afb30414 	sw	s3,1044(sp)
a0801da0:	afb20410 	sw	s2,1040(sp)
a0801da4:	afb1040c 	sw	s1,1036(sp)
a0801da8:	afb00408 	sw	s0,1032(sp)
a0801dac:	afbf0418 	sw	ra,1048(sp)
a0801db0:	00809021 	move	s2,a0
a0801db4:	00a09821 	move	s3,a1
a0801db8:	00c08021 	move	s0,a2
a0801dbc:	00e08821 	move	s1,a3
a0801dc0:	82030000 	lb	v1,0(s0)
a0801dc4:	38620025 	xori	v0,v1,0x25
a0801dc8:	0002102b 	sltu	v0,zero,v0
a0801dcc:	0003182b 	sltu	v1,zero,v1
a0801dd0:	00621824 	and	v1,v1,v0
a0801dd4:	10600009 	beqz	v1,a0801dfc <lp_Print+0x64>
a0801dd8:	02002821 	move	a1,s0
a0801ddc:	26100001 	addiu	s0,s0,1
a0801de0:	82020000 	lb	v0,0(s0)
a0801de4:	38430025 	xori	v1,v0,0x25
a0801de8:	0003182b 	sltu	v1,zero,v1
a0801dec:	0002102b 	sltu	v0,zero,v0
a0801df0:	00431024 	and	v0,v0,v1
a0801df4:	5440fffa 	bnezl	v0,a0801de0 <lp_Print+0x48>
a0801df8:	26100001 	addiu	s0,s0,1
a0801dfc:	02053023 	subu	a2,s0,a1
a0801e00:	2cc203e9 	sltiu	v0,a2,1001
a0801e04:	5040011c 	beqzl	v0,a0802278 <lp_Print+0x4e0>
a0801e08:	3c05a080 	lui	a1,0xa080
a0801e0c:	0240f809 	jalr	s2
a0801e10:	02602021 	move	a0,s3
a0801e14:	82020000 	lb	v0,0(s0)
a0801e18:	1040010b 	beqz	v0,a0802248 <lp_Print+0x4b0>
a0801e1c:	26100001 	addiu	s0,s0,1
a0801e20:	92050000 	lbu	a1,0(s0)
a0801e24:	2402006c 	li	v0,108
a0801e28:	00051e00 	sll	v1,a1,0x18
a0801e2c:	00031e03 	sra	v1,v1,0x18
a0801e30:	1062004c 	beq	v1,v0,a0801f64 <lp_Print+0x1cc>
a0801e34:	00003021 	move	a2,zero
a0801e38:	00051e00 	sll	v1,a1,0x18
a0801e3c:	00031e03 	sra	v1,v1,0x18
a0801e40:	2402002d 	li	v0,45
a0801e44:	00004021 	move	t0,zero
a0801e48:	00004821 	move	t1,zero
a0801e4c:	10620041 	beq	v1,v0,a0801f54 <lp_Print+0x1bc>
a0801e50:	240a0020 	li	t2,32
a0801e54:	00051e00 	sll	v1,a1,0x18
a0801e58:	00031e03 	sra	v1,v1,0x18
a0801e5c:	24020030 	li	v0,48
a0801e60:	50620039 	beql	v1,v0,a0801f48 <lp_Print+0x1b0>
a0801e64:	26100001 	addiu	s0,s0,1
a0801e68:	24a2ffd0 	addiu	v0,a1,-48
a0801e6c:	304200ff 	andi	v0,v0,0xff
a0801e70:	2c42000a 	sltiu	v0,v0,10
a0801e74:	1040000f 	beqz	v0,a0801eb4 <lp_Print+0x11c>
a0801e78:	00051e00 	sll	v1,a1,0x18
a0801e7c:	26100001 	addiu	s0,s0,1
a0801e80:	00051600 	sll	v0,a1,0x18
a0801e84:	92050000 	lbu	a1,0(s0)
a0801e88:	00081880 	sll	v1,t0,0x2
a0801e8c:	00681821 	addu	v1,v1,t0
a0801e90:	24a4ffd0 	addiu	a0,a1,-48
a0801e94:	00021603 	sra	v0,v0,0x18
a0801e98:	00031840 	sll	v1,v1,0x1
a0801e9c:	308400ff 	andi	a0,a0,0xff
a0801ea0:	00621821 	addu	v1,v1,v0
a0801ea4:	2c84000a 	sltiu	a0,a0,10
a0801ea8:	1480fff4 	bnez	a0,a0801e7c <lp_Print+0xe4>
a0801eac:	2468ffd0 	addiu	t0,v1,-48
a0801eb0:	00051e00 	sll	v1,a1,0x18
a0801eb4:	00031e03 	sra	v1,v1,0x18
a0801eb8:	2402002e 	li	v0,46
a0801ebc:	5062000d 	beql	v1,v0,a0801ef4 <lp_Print+0x15c>
a0801ec0:	26100001 	addiu	s0,s0,1
a0801ec4:	00051e00 	sll	v1,a1,0x18
a0801ec8:	00031e03 	sra	v1,v1,0x18
a0801ecc:	2c620079 	sltiu	v0,v1,121
a0801ed0:	10400017 	beqz	v0,a0801f30 <lp_Print+0x198>
a0801ed4:	00003821 	move	a3,zero
a0801ed8:	00031080 	sll	v0,v1,0x2
a0801edc:	3c03a080 	lui	v1,0xa080
a0801ee0:	24633610 	addiu	v1,v1,13840
a0801ee4:	00431021 	addu	v0,v0,v1
a0801ee8:	8c440000 	lw	a0,0(v0)
a0801eec:	00800008 	jr	a0
a0801ef0:	00000000 	nop
a0801ef4:	92050000 	lbu	a1,0(s0)
a0801ef8:	24a2ffd0 	addiu	v0,a1,-48
a0801efc:	304200ff 	andi	v0,v0,0xff
a0801f00:	2c42000a 	sltiu	v0,v0,10
a0801f04:	1040fff0 	beqz	v0,a0801ec8 <lp_Print+0x130>
a0801f08:	00051e00 	sll	v1,a1,0x18
a0801f0c:	26100001 	addiu	s0,s0,1
a0801f10:	92050000 	lbu	a1,0(s0)
a0801f14:	24a2ffd0 	addiu	v0,a1,-48
a0801f18:	304200ff 	andi	v0,v0,0xff
a0801f1c:	2c42000a 	sltiu	v0,v0,10
a0801f20:	5440fff4 	bnezl	v0,a0801ef4 <lp_Print+0x15c>
a0801f24:	26100001 	addiu	s0,s0,1
a0801f28:	082007b2 	j	a0801ec8 <lp_Print+0x130>
a0801f2c:	00051e00 	sll	v1,a1,0x18
a0801f30:	02602021 	move	a0,s3
a0801f34:	02002821 	move	a1,s0
a0801f38:	0240f809 	jalr	s2
a0801f3c:	24060001 	li	a2,1
a0801f40:	08200770 	j	a0801dc0 <lp_Print+0x28>
a0801f44:	26100001 	addiu	s0,s0,1
a0801f48:	92050000 	lbu	a1,0(s0)
a0801f4c:	0820079a 	j	a0801e68 <lp_Print+0xd0>
a0801f50:	240a0030 	li	t2,48
a0801f54:	26100001 	addiu	s0,s0,1
a0801f58:	92050000 	lbu	a1,0(s0)
a0801f5c:	08200795 	j	a0801e54 <lp_Print+0xbc>
a0801f60:	24090001 	li	t1,1
a0801f64:	26100001 	addiu	s0,s0,1
a0801f68:	92050000 	lbu	a1,0(s0)
a0801f6c:	0820078e 	j	a0801e38 <lp_Print+0xa0>
a0801f70:	24060001 	li	a2,1
a0801f74:	26220003 	addiu	v0,s1,3
a0801f78:	2403fffc 	li	v1,-4
a0801f7c:	00438824 	and	s1,v0,v1
a0801f80:	8e250000 	lw	a1,0(s1)
a0801f84:	24060010 	li	a2,16
a0801f88:	27a40020 	addiu	a0,sp,32
a0801f8c:	00003821 	move	a3,zero
a0801f90:	afa80010 	sw	t0,16(sp)
a0801f94:	afa90014 	sw	t1,20(sp)
a0801f98:	afaa0018 	sw	t2,24(sp)
a0801f9c:	0c2006b8 	jal	a0801ae0 <PrintNum>
a0801fa0:	afa0001c 	sw	zero,28(sp)
a0801fa4:	00403021 	move	a2,v0
a0801fa8:	2c4203e9 	sltiu	v0,v0,1001
a0801fac:	104000b8 	beqz	v0,a0802290 <lp_Print+0x4f8>
a0801fb0:	26310004 	addiu	s1,s1,4
a0801fb4:	02602021 	move	a0,s3
a0801fb8:	0240f809 	jalr	s2
a0801fbc:	27a50020 	addiu	a1,sp,32
a0801fc0:	08200770 	j	a0801dc0 <lp_Print+0x28>
a0801fc4:	26100001 	addiu	s0,s0,1
a0801fc8:	26220003 	addiu	v0,s1,3
a0801fcc:	2403fffc 	li	v1,-4
a0801fd0:	00438824 	and	s1,v0,v1
a0801fd4:	8e250000 	lw	a1,0(s1)
a0801fd8:	2406000a 	li	a2,10
a0801fdc:	27a40020 	addiu	a0,sp,32
a0801fe0:	00003821 	move	a3,zero
a0801fe4:	afa80010 	sw	t0,16(sp)
a0801fe8:	afa90014 	sw	t1,20(sp)
a0801fec:	afaa0018 	sw	t2,24(sp)
a0801ff0:	0c2006b8 	jal	a0801ae0 <PrintNum>
a0801ff4:	afa0001c 	sw	zero,28(sp)
a0801ff8:	00403021 	move	a2,v0
a0801ffc:	2c4203e9 	sltiu	v0,v0,1001
a0802000:	1440ffec 	bnez	v0,a0801fb4 <lp_Print+0x21c>
a0802004:	26310004 	addiu	s1,s1,4
a0802008:	3c05a080 	lui	a1,0xa080
a080200c:	02602021 	move	a0,s3
a0802010:	24a535f0 	addiu	a1,a1,13808
a0802014:	0240f809 	jalr	s2
a0802018:	24060018 	li	a2,24
a080201c:	08200807 	j	a080201c <lp_Print+0x284>
a0802020:	00000000 	nop
a0802024:	26240003 	addiu	a0,s1,3
a0802028:	2402fffc 	li	v0,-4
a080202c:	00828824 	and	s1,a0,v0
a0802030:	8e250000 	lw	a1,0(s1)
a0802034:	01003021 	move	a2,t0
a0802038:	01203821 	move	a3,t1
a080203c:	0c20072c 	jal	a0801cb0 <PrintString>
a0802040:	27a40020 	addiu	a0,sp,32
a0802044:	00403021 	move	a2,v0
a0802048:	2c4203e9 	sltiu	v0,v0,1001
a080204c:	1440ffd9 	bnez	v0,a0801fb4 <lp_Print+0x21c>
a0802050:	26310004 	addiu	s1,s1,4
a0802054:	3c05a080 	lui	a1,0xa080
a0802058:	02602021 	move	a0,s3
a080205c:	24a535f0 	addiu	a1,a1,13808
a0802060:	0240f809 	jalr	s2
a0802064:	24060018 	li	a2,24
a0802068:	0820081a 	j	a0802068 <lp_Print+0x2d0>
a080206c:	00000000 	nop
a0802070:	26220003 	addiu	v0,s1,3
a0802074:	2403fffc 	li	v1,-4
a0802078:	00438824 	and	s1,v0,v1
a080207c:	8e250000 	lw	a1,0(s1)
a0802080:	24060008 	li	a2,8
a0802084:	27a40020 	addiu	a0,sp,32
a0802088:	00003821 	move	a3,zero
a080208c:	afa80010 	sw	t0,16(sp)
a0802090:	afa90014 	sw	t1,20(sp)
a0802094:	afaa0018 	sw	t2,24(sp)
a0802098:	0c2006b8 	jal	a0801ae0 <PrintNum>
a080209c:	afa0001c 	sw	zero,28(sp)
a08020a0:	00403021 	move	a2,v0
a08020a4:	2c4203e9 	sltiu	v0,v0,1001
a08020a8:	1440ffc2 	bnez	v0,a0801fb4 <lp_Print+0x21c>
a08020ac:	26310004 	addiu	s1,s1,4
a08020b0:	3c05a080 	lui	a1,0xa080
a08020b4:	02602021 	move	a0,s3
a08020b8:	24a535f0 	addiu	a1,a1,13808
a08020bc:	0240f809 	jalr	s2
a08020c0:	24060018 	li	a2,24
a08020c4:	08200831 	j	a08020c4 <lp_Print+0x32c>
a08020c8:	00000000 	nop
a08020cc:	26220003 	addiu	v0,s1,3
a08020d0:	2403fffc 	li	v1,-4
a08020d4:	00438824 	and	s1,v0,v1
a08020d8:	8e250000 	lw	a1,0(s1)
a08020dc:	04a00057 	bltz	a1,a080223c <lp_Print+0x4a4>
a08020e0:	26310004 	addiu	s1,s1,4
a08020e4:	2406000a 	li	a2,10
a08020e8:	27a40020 	addiu	a0,sp,32
a08020ec:	afa80010 	sw	t0,16(sp)
a08020f0:	afa90014 	sw	t1,20(sp)
a08020f4:	afaa0018 	sw	t2,24(sp)
a08020f8:	0c2006b8 	jal	a0801ae0 <PrintNum>
a08020fc:	afa0001c 	sw	zero,28(sp)
a0802100:	00403021 	move	a2,v0
a0802104:	2c4203e9 	sltiu	v0,v0,1001
a0802108:	1440ffab 	bnez	v0,a0801fb8 <lp_Print+0x220>
a080210c:	02602021 	move	a0,s3
a0802110:	3c05a080 	lui	a1,0xa080
a0802114:	24a535f0 	addiu	a1,a1,13808
a0802118:	0240f809 	jalr	s2
a080211c:	24060018 	li	a2,24
a0802120:	08200848 	j	a0802120 <lp_Print+0x388>
a0802124:	00000000 	nop
a0802128:	26240003 	addiu	a0,s1,3
a080212c:	2402fffc 	li	v0,-4
a0802130:	00828824 	and	s1,a0,v0
a0802134:	82250000 	lb	a1,0(s1)
a0802138:	01003021 	move	a2,t0
a080213c:	01203821 	move	a3,t1
a0802140:	0c20070d 	jal	a0801c34 <PrintChar>
a0802144:	27a40020 	addiu	a0,sp,32
a0802148:	00403021 	move	a2,v0
a080214c:	2c4203e9 	sltiu	v0,v0,1001
a0802150:	1440ff98 	bnez	v0,a0801fb4 <lp_Print+0x21c>
a0802154:	26310004 	addiu	s1,s1,4
a0802158:	3c05a080 	lui	a1,0xa080
a080215c:	02602021 	move	a0,s3
a0802160:	24a535f0 	addiu	a1,a1,13808
a0802164:	0240f809 	jalr	s2
a0802168:	24060018 	li	a2,24
a080216c:	0820085b 	j	a080216c <lp_Print+0x3d4>
a0802170:	00000000 	nop
a0802174:	26220003 	addiu	v0,s1,3
a0802178:	2403fffc 	li	v1,-4
a080217c:	00438824 	and	s1,v0,v1
a0802180:	8e250000 	lw	a1,0(s1)
a0802184:	24060002 	li	a2,2
a0802188:	27a40020 	addiu	a0,sp,32
a080218c:	00003821 	move	a3,zero
a0802190:	afa80010 	sw	t0,16(sp)
a0802194:	afa90014 	sw	t1,20(sp)
a0802198:	afaa0018 	sw	t2,24(sp)
a080219c:	0c2006b8 	jal	a0801ae0 <PrintNum>
a08021a0:	afa0001c 	sw	zero,28(sp)
a08021a4:	00403021 	move	a2,v0
a08021a8:	2c4203e9 	sltiu	v0,v0,1001
a08021ac:	1440ff81 	bnez	v0,a0801fb4 <lp_Print+0x21c>
a08021b0:	26310004 	addiu	s1,s1,4
a08021b4:	3c05a080 	lui	a1,0xa080
a08021b8:	02602021 	move	a0,s3
a08021bc:	24a535f0 	addiu	a1,a1,13808
a08021c0:	0240f809 	jalr	s2
a08021c4:	24060018 	li	a2,24
a08021c8:	08200872 	j	a08021c8 <lp_Print+0x430>
a08021cc:	00000000 	nop
a08021d0:	26220003 	addiu	v0,s1,3
a08021d4:	2403fffc 	li	v1,-4
a08021d8:	00438824 	and	s1,v0,v1
a08021dc:	8e250000 	lw	a1,0(s1)
a08021e0:	24060010 	li	a2,16
a08021e4:	24020001 	li	v0,1
a08021e8:	27a40020 	addiu	a0,sp,32
a08021ec:	00003821 	move	a3,zero
a08021f0:	afa80010 	sw	t0,16(sp)
a08021f4:	afa90014 	sw	t1,20(sp)
a08021f8:	afaa0018 	sw	t2,24(sp)
a08021fc:	0c2006b8 	jal	a0801ae0 <PrintNum>
a0802200:	afa2001c 	sw	v0,28(sp)
a0802204:	00403021 	move	a2,v0
a0802208:	2c4203e9 	sltiu	v0,v0,1001
a080220c:	1440ff69 	bnez	v0,a0801fb4 <lp_Print+0x21c>
a0802210:	26310004 	addiu	s1,s1,4
a0802214:	3c05a080 	lui	a1,0xa080
a0802218:	02602021 	move	a0,s3
a080221c:	24a535f0 	addiu	a1,a1,13808
a0802220:	0240f809 	jalr	s2
a0802224:	24060018 	li	a2,24
a0802228:	0820088a 	j	a0802228 <lp_Print+0x490>
a080222c:	00000000 	nop
a0802230:	2610ffff 	addiu	s0,s0,-1
a0802234:	08200770 	j	a0801dc0 <lp_Print+0x28>
a0802238:	26100001 	addiu	s0,s0,1
a080223c:	00052823 	negu	a1,a1
a0802240:	08200839 	j	a08020e4 <lp_Print+0x34c>
a0802244:	24070001 	li	a3,1
a0802248:	3c05a080 	lui	a1,0xa080
a080224c:	02602021 	move	a0,s3
a0802250:	24a5360c 	addiu	a1,a1,13836
a0802254:	0240f809 	jalr	s2
a0802258:	24060001 	li	a2,1
a080225c:	8fbf0418 	lw	ra,1048(sp)
a0802260:	8fb30414 	lw	s3,1044(sp)
a0802264:	8fb20410 	lw	s2,1040(sp)
a0802268:	8fb1040c 	lw	s1,1036(sp)
a080226c:	8fb00408 	lw	s0,1032(sp)
a0802270:	03e00008 	jr	ra
a0802274:	27bd0420 	addiu	sp,sp,1056
a0802278:	02602021 	move	a0,s3
a080227c:	24a535f0 	addiu	a1,a1,13808
a0802280:	0240f809 	jalr	s2
a0802284:	24060018 	li	a2,24
a0802288:	082008a2 	j	a0802288 <lp_Print+0x4f0>
a080228c:	00000000 	nop
a0802290:	3c05a080 	lui	a1,0xa080
a0802294:	02602021 	move	a0,s3
a0802298:	24a535f0 	addiu	a1,a1,13808
a080229c:	0240f809 	jalr	s2
a08022a0:	24060018 	li	a2,24
a08022a4:	082008a9 	j	a08022a4 <lp_Print+0x50c>
a08022a8:	00000000 	nop
a08022ac:	00000000 	nop

a08022b0 <check_sleeping>:
a08022b0:	27bdffe0 	addiu	sp,sp,-32
a08022b4:	afb10014 	sw	s1,20(sp)
a08022b8:	3c11a080 	lui	s1,0xa080
a08022bc:	afbf0018 	sw	ra,24(sp)
a08022c0:	082008cb 	j	a080232c <check_sleeping+0x7c>
a08022c4:	afb00010 	sw	s0,16(sp)
a08022c8:	0c200c16 	jal	a0803058 <peek>
a08022cc:	00000000 	nop
a08022d0:	00402821 	move	a1,v0
a08022d4:	3c06a080 	lui	a2,0xa080
a08022d8:	8cc23b14 	lw	v0,15124(a2)
a08022dc:	8ca3015c 	lw	v1,348(a1)
a08022e0:	0043102b 	sltu	v0,v0,v1
a08022e4:	14400016 	bnez	v0,a0802340 <check_sleeping+0x90>
a08022e8:	26043b24 	addiu	a0,s0,15140
a08022ec:	8cc23b14 	lw	v0,15124(a2)
a08022f0:	14620008 	bne	v1,v0,a0802314 <check_sleeping+0x64>
a08022f4:	24020001 	li	v0,1
a08022f8:	8cc23b10 	lw	v0,15120(a2)
a08022fc:	8ca30158 	lw	v1,344(a1)
a0802300:	0043102b 	sltu	v0,v0,v1
a0802304:	1440000f 	bnez	v0,a0802344 <check_sleeping+0x94>
a0802308:	8fbf0018 	lw	ra,24(sp)
a080230c:	8cc23b10 	lw	v0,15120(a2)
a0802310:	24020001 	li	v0,1
a0802314:	0c200bff 	jal	a0802ffc <dequeue>
a0802318:	aca20150 	sw	v0,336(a1)
a080231c:	3c04a080 	lui	a0,0xa080
a0802320:	24843b18 	addiu	a0,a0,15128
a0802324:	0c200c0b 	jal	a080302c <enqueue>
a0802328:	00402821 	move	a1,v0
a080232c:	26243b24 	addiu	a0,s1,15140
a0802330:	0c200c12 	jal	a0803048 <is_empty>
a0802334:	3c10a080 	lui	s0,0xa080
a0802338:	1040ffe3 	beqz	v0,a08022c8 <check_sleeping+0x18>
a080233c:	26043b24 	addiu	a0,s0,15140
a0802340:	8fbf0018 	lw	ra,24(sp)
a0802344:	8fb10014 	lw	s1,20(sp)
a0802348:	8fb00010 	lw	s0,16(sp)
a080234c:	03e00008 	jr	ra
a0802350:	27bd0020 	addiu	sp,sp,32

a0802354 <put_current_running>:
a0802354:	3c02a080 	lui	v0,0xa080
a0802358:	8c453b20 	lw	a1,15136(v0)
a080235c:	24030001 	li	v1,1
a0802360:	3c04a080 	lui	a0,0xa080
a0802364:	aca30150 	sw	v1,336(a1)
a0802368:	08200c0b 	j	a080302c <enqueue>
a080236c:	24843b18 	addiu	a0,a0,15128

a0802370 <scheduler>:
a0802370:	27bdffe8 	addiu	sp,sp,-24
a0802374:	afbf0014 	sw	ra,20(sp)
a0802378:	afb00010 	sw	s0,16(sp)
a080237c:	3c02a080 	lui	v0,0xa080
a0802380:	8c433a8c 	lw	v1,14988(v0)
a0802384:	1460001f 	bnez	v1,a0802404 <scheduler+0x94>
a0802388:	3c06a080 	lui	a2,0xa080
a080238c:	24c63818 	addiu	a2,a2,14360
a0802390:	00002021 	move	a0,zero
a0802394:	0c200aa1 	jal	a0802a84 <print_str>
a0802398:	00002821 	move	a1,zero
a080239c:	3c06a080 	lui	a2,0xa080
a08023a0:	24c63934 	addiu	a2,a2,14644
a08023a4:	00002021 	move	a0,zero
a08023a8:	0c200aa1 	jal	a0802a84 <print_str>
a08023ac:	24050013 	li	a1,19
a08023b0:	3c06a080 	lui	a2,0xa080
a08023b4:	24c63848 	addiu	a2,a2,14408
a08023b8:	24040001 	li	a0,1
a08023bc:	0c200aa1 	jal	a0802a84 <print_str>
a08023c0:	00002821 	move	a1,zero
a08023c4:	3c06a080 	lui	a2,0xa080
a08023c8:	24c63944 	addiu	a2,a2,14660
a08023cc:	24040001 	li	a0,1
a08023d0:	0c200aa1 	jal	a0802a84 <print_str>
a08023d4:	24050006 	li	a1,6
a08023d8:	3c06a080 	lui	a2,0xa080
a08023dc:	24c6385c 	addiu	a2,a2,14428
a08023e0:	24040002 	li	a0,2
a08023e4:	0c200aa1 	jal	a0802a84 <print_str>
a08023e8:	00002821 	move	a1,zero
a08023ec:	24040002 	li	a0,2
a08023f0:	24050006 	li	a1,6
a08023f4:	0c200b3e 	jal	a0802cf8 <print_int>
a08023f8:	2406002a 	li	a2,42
a08023fc:	082008ff 	j	a08023fc <scheduler+0x8c>
a0802400:	00000000 	nop
a0802404:	0c2008ac 	jal	a08022b0 <check_sleeping>
a0802408:	3c10a080 	lui	s0,0xa080
a080240c:	0820090b 	j	a080242c <scheduler+0xbc>
a0802410:	00000000 	nop
a0802414:	0c200522 	jal	a0801488 <leave_critical>
a0802418:	00000000 	nop
a080241c:	0c200512 	jal	a0801448 <enter_critical>
a0802420:	00000000 	nop
a0802424:	0c2008ac 	jal	a08022b0 <check_sleeping>
a0802428:	00000000 	nop
a080242c:	0c200c12 	jal	a0803048 <is_empty>
a0802430:	26043b18 	addiu	a0,s0,15128
a0802434:	1440fff7 	bnez	v0,a0802414 <scheduler+0xa4>
a0802438:	00000000 	nop
a080243c:	0c200bff 	jal	a0802ffc <dequeue>
a0802440:	26043b18 	addiu	a0,s0,15128
a0802444:	3c03a080 	lui	v1,0xa080
a0802448:	10400009 	beqz	v0,a0802470 <scheduler+0x100>
a080244c:	ac623b20 	sw	v0,15136(v1)
a0802450:	8c633b20 	lw	v1,15136(v1)
a0802454:	8fbf0014 	lw	ra,20(sp)
a0802458:	8fb00010 	lw	s0,16(sp)
a080245c:	8c620154 	lw	v0,340(v1)
a0802460:	27bd0018 	addiu	sp,sp,24
a0802464:	24420001 	addiu	v0,v0,1
a0802468:	03e00008 	jr	ra
a080246c:	ac620154 	sw	v0,340(v1)
a0802470:	3c06a080 	lui	a2,0xa080
a0802474:	24c63818 	addiu	a2,a2,14360
a0802478:	00002021 	move	a0,zero
a080247c:	0c200aa1 	jal	a0802a84 <print_str>
a0802480:	00002821 	move	a1,zero
a0802484:	3c06a080 	lui	a2,0xa080
a0802488:	24c63950 	addiu	a2,a2,14672
a080248c:	00002021 	move	a0,zero
a0802490:	0c200aa1 	jal	a0802a84 <print_str>
a0802494:	24050013 	li	a1,19
a0802498:	3c06a080 	lui	a2,0xa080
a080249c:	24c63848 	addiu	a2,a2,14408
a08024a0:	24040001 	li	a0,1
a08024a4:	0c200aa1 	jal	a0802a84 <print_str>
a08024a8:	00002821 	move	a1,zero
a08024ac:	3c06a080 	lui	a2,0xa080
a08024b0:	24c63944 	addiu	a2,a2,14660
a08024b4:	24040001 	li	a0,1
a08024b8:	0c200aa1 	jal	a0802a84 <print_str>
a08024bc:	24050006 	li	a1,6
a08024c0:	3c06a080 	lui	a2,0xa080
a08024c4:	24c6385c 	addiu	a2,a2,14428
a08024c8:	24040002 	li	a0,2
a08024cc:	0c200aa1 	jal	a0802a84 <print_str>
a08024d0:	00002821 	move	a1,zero
a08024d4:	24040002 	li	a0,2
a08024d8:	24050006 	li	a1,6
a08024dc:	0c200b3e 	jal	a0802cf8 <print_int>
a08024e0:	24060032 	li	a2,50
a08024e4:	08200939 	j	a08024e4 <scheduler+0x174>
a08024e8:	00000000 	nop

a08024ec <lte_deadline>:
a08024ec:	8c86015c 	lw	a2,348(a0)
a08024f0:	8ca3015c 	lw	v1,348(a1)
a08024f4:	0066102b 	sltu	v0,v1,a2
a08024f8:	14400004 	bnez	v0,a080250c <lte_deadline+0x20>
a08024fc:	00003821 	move	a3,zero
a0802500:	50c30004 	beql	a2,v1,a0802514 <lte_deadline+0x28>
a0802504:	8c830158 	lw	v1,344(a0)
a0802508:	24070001 	li	a3,1
a080250c:	03e00008 	jr	ra
a0802510:	00e01021 	move	v0,a3
a0802514:	8ca20158 	lw	v0,344(a1)
a0802518:	0043102b 	sltu	v0,v0,v1
a080251c:	5040fffb 	beqzl	v0,a080250c <lte_deadline+0x20>
a0802520:	24070001 	li	a3,1
a0802524:	08200943 	j	a080250c <lte_deadline+0x20>
a0802528:	00000000 	nop

a080252c <do_sleep>:
a080252c:	27bdffe8 	addiu	sp,sp,-24
a0802530:	afb00010 	sw	s0,16(sp)
a0802534:	afbf0014 	sw	ra,20(sp)
a0802538:	3c02a080 	lui	v0,0xa080
a080253c:	8c433a8c 	lw	v1,14988(v0)
a0802540:	10600020 	beqz	v1,a08025c4 <do_sleep+0x98>
a0802544:	00808021 	move	s0,a0
a0802548:	3c06a080 	lui	a2,0xa080
a080254c:	24c63818 	addiu	a2,a2,14360
a0802550:	00002021 	move	a0,zero
a0802554:	0c200aa1 	jal	a0802a84 <print_str>
a0802558:	00002821 	move	a1,zero
a080255c:	3c06a080 	lui	a2,0xa080
a0802560:	24c63968 	addiu	a2,a2,14696
a0802564:	00002021 	move	a0,zero
a0802568:	0c200aa1 	jal	a0802a84 <print_str>
a080256c:	24050013 	li	a1,19
a0802570:	3c06a080 	lui	a2,0xa080
a0802574:	24c63848 	addiu	a2,a2,14408
a0802578:	24040001 	li	a0,1
a080257c:	0c200aa1 	jal	a0802a84 <print_str>
a0802580:	00002821 	move	a1,zero
a0802584:	3c06a080 	lui	a2,0xa080
a0802588:	24c63944 	addiu	a2,a2,14660
a080258c:	24040001 	li	a0,1
a0802590:	0c200aa1 	jal	a0802a84 <print_str>
a0802594:	24050006 	li	a1,6
a0802598:	3c06a080 	lui	a2,0xa080
a080259c:	24c6385c 	addiu	a2,a2,14428
a08025a0:	24040002 	li	a0,2
a08025a4:	0c200aa1 	jal	a0802a84 <print_str>
a08025a8:	00002821 	move	a1,zero
a08025ac:	24040002 	li	a0,2
a08025b0:	24050006 	li	a1,6
a08025b4:	0c200b3e 	jal	a0802cf8 <print_int>
a08025b8:	24060042 	li	a2,66
a08025bc:	0820096f 	j	a08025bc <do_sleep+0x90>
a08025c0:	00000000 	nop
a08025c4:	0c200512 	jal	a0801448 <enter_critical>
a08025c8:	00000000 	nop
a08025cc:	3c041062 	lui	a0,0x1062
a08025d0:	34844dd3 	ori	a0,a0,0x4dd3
a08025d4:	02040018 	mult	s0,a0
a08025d8:	3c0aa080 	lui	t2,0xa080
a08025dc:	8d463b10 	lw	a2,15120(t2)
a08025e0:	001047c3 	sra	t0,s0,0x1f
a08025e4:	8d473b14 	lw	a3,15124(t2)
a08025e8:	3c0ba080 	lui	t3,0xa080
a08025ec:	8d693b20 	lw	t1,15136(t3)
a08025f0:	8d453b14 	lw	a1,15124(t2)
a08025f4:	00002010 	mfhi	a0
a08025f8:	00042183 	sra	a0,a0,0x6
a08025fc:	00882023 	subu	a0,a0,t0
a0802600:	00041fc3 	sra	v1,a0,0x1f
a0802604:	00861021 	addu	v0,a0,a2
a0802608:	0046202b 	sltu	a0,v0,a2
a080260c:	00671821 	addu	v1,v1,a3
a0802610:	00641821 	addu	v1,v1,a0
a0802614:	ad23015c 	sw	v1,348(t1)
a0802618:	8d23015c 	lw	v1,348(t1)
a080261c:	00a3282b 	sltu	a1,a1,v1
a0802620:	14a00007 	bnez	a1,a0802640 <do_sleep+0x114>
a0802624:	ad220158 	sw	v0,344(t1)
a0802628:	8d423b14 	lw	v0,15124(t2)
a080262c:	10620012 	beq	v1,v0,a0802678 <do_sleep+0x14c>
a0802630:	8fbf0014 	lw	ra,20(sp)
a0802634:	8fb00010 	lw	s0,16(sp)
a0802638:	08200522 	j	a0801488 <leave_critical>
a080263c:	27bd0018 	addiu	sp,sp,24
a0802640:	8d653b20 	lw	a1,15136(t3)
a0802644:	24020004 	li	v0,4
a0802648:	3c04a080 	lui	a0,0xa080
a080264c:	aca20150 	sw	v0,336(a1)
a0802650:	0c200c0b 	jal	a080302c <enqueue>
a0802654:	24843b24 	addiu	a0,a0,15140
a0802658:	0c2002d4 	jal	a0800b50 <scheduler_entry>
a080265c:	00000000 	nop
a0802660:	0c200512 	jal	a0801448 <enter_critical>
a0802664:	00000000 	nop
a0802668:	8fbf0014 	lw	ra,20(sp)
a080266c:	8fb00010 	lw	s0,16(sp)
a0802670:	08200522 	j	a0801488 <leave_critical>
a0802674:	27bd0018 	addiu	sp,sp,24
a0802678:	8d230158 	lw	v1,344(t1)
a080267c:	8d423b10 	lw	v0,15120(t2)
a0802680:	0043102b 	sltu	v0,v0,v1
a0802684:	1440ffef 	bnez	v0,a0802644 <do_sleep+0x118>
a0802688:	8d653b20 	lw	a1,15136(t3)
a080268c:	8fbf0014 	lw	ra,20(sp)
a0802690:	8fb00010 	lw	s0,16(sp)
a0802694:	27bd0018 	addiu	sp,sp,24
a0802698:	8d423b10 	lw	v0,15120(t2)
a080269c:	08200522 	j	a0801488 <leave_critical>
a08026a0:	00000000 	nop

a08026a4 <do_yield>:
a08026a4:	27bdffe8 	addiu	sp,sp,-24
a08026a8:	afbf0010 	sw	ra,16(sp)
a08026ac:	0c200512 	jal	a0801448 <enter_critical>
a08026b0:	00000000 	nop
a08026b4:	0c2008d5 	jal	a0802354 <put_current_running>
a08026b8:	00000000 	nop
a08026bc:	8fbf0010 	lw	ra,16(sp)
a08026c0:	082002d4 	j	a0800b50 <scheduler_entry>
a08026c4:	27bd0018 	addiu	sp,sp,24

a08026c8 <do_exit>:
a08026c8:	27bdffe8 	addiu	sp,sp,-24
a08026cc:	afbf0010 	sw	ra,16(sp)
a08026d0:	0c200512 	jal	a0801448 <enter_critical>
a08026d4:	00000000 	nop
a08026d8:	3c02a080 	lui	v0,0xa080
a08026dc:	8c443b20 	lw	a0,15136(v0)
a08026e0:	24030003 	li	v1,3
a08026e4:	8fbf0010 	lw	ra,16(sp)
a08026e8:	ac830150 	sw	v1,336(a0)
a08026ec:	082002d4 	j	a0800b50 <scheduler_entry>
a08026f0:	27bd0018 	addiu	sp,sp,24

a08026f4 <block>:
a08026f4:	27bdffe8 	addiu	sp,sp,-24
a08026f8:	afbf0010 	sw	ra,16(sp)
a08026fc:	3c02a080 	lui	v0,0xa080
a0802700:	8c433a8c 	lw	v1,14988(v0)
a0802704:	14600020 	bnez	v1,a0802788 <block+0x94>
a0802708:	3c02a080 	lui	v0,0xa080
a080270c:	3c06a080 	lui	a2,0xa080
a0802710:	24c63818 	addiu	a2,a2,14360
a0802714:	00002021 	move	a0,zero
a0802718:	0c200aa1 	jal	a0802a84 <print_str>
a080271c:	00002821 	move	a1,zero
a0802720:	3c06a080 	lui	a2,0xa080
a0802724:	24c63934 	addiu	a2,a2,14644
a0802728:	00002021 	move	a0,zero
a080272c:	0c200aa1 	jal	a0802a84 <print_str>
a0802730:	24050013 	li	a1,19
a0802734:	3c06a080 	lui	a2,0xa080
a0802738:	24c63848 	addiu	a2,a2,14408
a080273c:	24040001 	li	a0,1
a0802740:	0c200aa1 	jal	a0802a84 <print_str>
a0802744:	00002821 	move	a1,zero
a0802748:	3c06a080 	lui	a2,0xa080
a080274c:	24c63944 	addiu	a2,a2,14660
a0802750:	24040001 	li	a0,1
a0802754:	0c200aa1 	jal	a0802a84 <print_str>
a0802758:	24050006 	li	a1,6
a080275c:	3c06a080 	lui	a2,0xa080
a0802760:	24c6385c 	addiu	a2,a2,14428
a0802764:	24040002 	li	a0,2
a0802768:	0c200aa1 	jal	a0802a84 <print_str>
a080276c:	00002821 	move	a1,zero
a0802770:	24040002 	li	a0,2
a0802774:	24050006 	li	a1,6
a0802778:	0c200b3e 	jal	a0802cf8 <print_int>
a080277c:	2406005f 	li	a2,95
a0802780:	082009e0 	j	a0802780 <block+0x8c>
a0802784:	00000000 	nop
a0802788:	8c453b20 	lw	a1,15136(v0)
a080278c:	24020002 	li	v0,2
a0802790:	0c200c0b 	jal	a080302c <enqueue>
a0802794:	aca20150 	sw	v0,336(a1)
a0802798:	0c2002d4 	jal	a0800b50 <scheduler_entry>
a080279c:	00000000 	nop
a08027a0:	8fbf0010 	lw	ra,16(sp)
a08027a4:	08200512 	j	a0801448 <enter_critical>
a08027a8:	27bd0018 	addiu	sp,sp,24

a08027ac <unblock>:
a08027ac:	27bdffe8 	addiu	sp,sp,-24
a08027b0:	afbf0010 	sw	ra,16(sp)
a08027b4:	3c02a080 	lui	v0,0xa080
a08027b8:	8c433a8c 	lw	v1,14988(v0)
a08027bc:	14600020 	bnez	v1,a0802840 <unblock+0x94>
a08027c0:	00802821 	move	a1,a0
a08027c4:	3c06a080 	lui	a2,0xa080
a08027c8:	24c63818 	addiu	a2,a2,14360
a08027cc:	00002021 	move	a0,zero
a08027d0:	0c200aa1 	jal	a0802a84 <print_str>
a08027d4:	00002821 	move	a1,zero
a08027d8:	3c06a080 	lui	a2,0xa080
a08027dc:	24c63934 	addiu	a2,a2,14644
a08027e0:	00002021 	move	a0,zero
a08027e4:	0c200aa1 	jal	a0802a84 <print_str>
a08027e8:	24050013 	li	a1,19
a08027ec:	3c06a080 	lui	a2,0xa080
a08027f0:	24c63848 	addiu	a2,a2,14408
a08027f4:	24040001 	li	a0,1
a08027f8:	0c200aa1 	jal	a0802a84 <print_str>
a08027fc:	00002821 	move	a1,zero
a0802800:	3c06a080 	lui	a2,0xa080
a0802804:	24c63944 	addiu	a2,a2,14660
a0802808:	24040001 	li	a0,1
a080280c:	0c200aa1 	jal	a0802a84 <print_str>
a0802810:	24050006 	li	a1,6
a0802814:	3c06a080 	lui	a2,0xa080
a0802818:	24c6385c 	addiu	a2,a2,14428
a080281c:	24040002 	li	a0,2
a0802820:	0c200aa1 	jal	a0802a84 <print_str>
a0802824:	00002821 	move	a1,zero
a0802828:	24040002 	li	a0,2
a080282c:	24050006 	li	a1,6
a0802830:	0c200b3e 	jal	a0802cf8 <print_int>
a0802834:	24060067 	li	a2,103
a0802838:	08200a0e 	j	a0802838 <unblock+0x8c>
a080283c:	00000000 	nop
a0802840:	24020001 	li	v0,1
a0802844:	ac820150 	sw	v0,336(a0)
a0802848:	3c04a080 	lui	a0,0xa080
a080284c:	8fbf0010 	lw	ra,16(sp)
a0802850:	24843b18 	addiu	a0,a0,15128
a0802854:	08200c0b 	j	a080302c <enqueue>
a0802858:	27bd0018 	addiu	sp,sp,24

a080285c <do_getpid>:
a080285c:	27bdffe8 	addiu	sp,sp,-24
a0802860:	afbf0014 	sw	ra,20(sp)
a0802864:	0c200512 	jal	a0801448 <enter_critical>
a0802868:	afb00010 	sw	s0,16(sp)
a080286c:	3c02a080 	lui	v0,0xa080
a0802870:	8c433b20 	lw	v1,15136(v0)
a0802874:	0c200522 	jal	a0801488 <leave_critical>
a0802878:	8c700148 	lw	s0,328(v1)
a080287c:	8fbf0014 	lw	ra,20(sp)
a0802880:	02001021 	move	v0,s0
a0802884:	8fb00010 	lw	s0,16(sp)
a0802888:	03e00008 	jr	ra
a080288c:	27bd0018 	addiu	sp,sp,24

a0802890 <do_gettimeofday>:
a0802890:	3c04a080 	lui	a0,0xa080
a0802894:	8c823b10 	lw	v0,15120(a0)
a0802898:	8c833b14 	lw	v1,15124(a0)
a080289c:	03e00008 	jr	ra
a08028a0:	00000000 	nop

a08028a4 <do_getpriority>:
a08028a4:	27bdffe8 	addiu	sp,sp,-24
a08028a8:	afbf0014 	sw	ra,20(sp)
a08028ac:	0c200512 	jal	a0801448 <enter_critical>
a08028b0:	afb00010 	sw	s0,16(sp)
a08028b4:	3c02a080 	lui	v0,0xa080
a08028b8:	8c433b20 	lw	v1,15136(v0)
a08028bc:	0c200522 	jal	a0801488 <leave_critical>
a08028c0:	8c700160 	lw	s0,352(v1)
a08028c4:	8fbf0014 	lw	ra,20(sp)
a08028c8:	02001021 	move	v0,s0
a08028cc:	8fb00010 	lw	s0,16(sp)
a08028d0:	03e00008 	jr	ra
a08028d4:	27bd0018 	addiu	sp,sp,24

a08028d8 <do_setpriority>:
a08028d8:	27bdffe8 	addiu	sp,sp,-24
a08028dc:	afb00010 	sw	s0,16(sp)
a08028e0:	afbf0014 	sw	ra,20(sp)
a08028e4:	1880000a 	blez	a0,a0802910 <do_setpriority+0x38>
a08028e8:	00808021 	move	s0,a0
a08028ec:	0c200512 	jal	a0801448 <enter_critical>
a08028f0:	00000000 	nop
a08028f4:	3c02a080 	lui	v0,0xa080
a08028f8:	8c433b20 	lw	v1,15136(v0)
a08028fc:	8fbf0014 	lw	ra,20(sp)
a0802900:	ac700160 	sw	s0,352(v1)
a0802904:	8fb00010 	lw	s0,16(sp)
a0802908:	08200522 	j	a0801488 <leave_critical>
a080290c:	27bd0018 	addiu	sp,sp,24
a0802910:	8fbf0014 	lw	ra,20(sp)
a0802914:	8fb00010 	lw	s0,16(sp)
a0802918:	03e00008 	jr	ra
a080291c:	27bd0018 	addiu	sp,sp,24

a0802920 <get_timer>:
a0802920:	08200a24 	j	a0802890 <do_gettimeofday>
a0802924:	00000000 	nop
	...

a0802930 <lock_init>:
a0802930:	03e00008 	jr	ra
a0802934:	00000000 	nop

a0802938 <lock_acquire>:
a0802938:	03e00008 	jr	ra
a080293c:	00000000 	nop

a0802940 <lock_release>:
a0802940:	03e00008 	jr	ra
a0802944:	00000000 	nop

a0802948 <condition_init>:
a0802948:	03e00008 	jr	ra
a080294c:	00000000 	nop

a0802950 <condition_wait>:
a0802950:	03e00008 	jr	ra
a0802954:	00000000 	nop

a0802958 <condition_signal>:
a0802958:	03e00008 	jr	ra
a080295c:	00000000 	nop

a0802960 <condition_broadcast>:
a0802960:	03e00008 	jr	ra
a0802964:	00000000 	nop

a0802968 <semaphore_init>:
a0802968:	03e00008 	jr	ra
a080296c:	00000000 	nop

a0802970 <semaphore_up>:
a0802970:	03e00008 	jr	ra
a0802974:	00000000 	nop

a0802978 <semaphore_down>:
a0802978:	03e00008 	jr	ra
a080297c:	00000000 	nop

a0802980 <barrier_init>:
a0802980:	03e00008 	jr	ra
a0802984:	00000000 	nop

a0802988 <barrier_wait>:
a0802988:	03e00008 	jr	ra
a080298c:	00000000 	nop

a0802990 <printstr>:
a0802990:	90850000 	lbu	a1,0(a0)
a0802994:	3c02bfe4 	lui	v0,0xbfe4
a0802998:	10a0000b 	beqz	a1,a08029c8 <printstr+0x38>
a080299c:	34428000 	ori	v0,v0,0x8000
a08029a0:	2406ffff 	li	a2,-1
a08029a4:	2403270f 	li	v1,9999
a08029a8:	2463fffc 	addiu	v1,v1,-4
a08029ac:	5466ffff 	bnel	v1,a2,a08029ac <printstr+0x1c>
a08029b0:	2463fffc 	addiu	v1,v1,-4
a08029b4:	a0450000 	sb	a1,0(v0)
a08029b8:	24840001 	addiu	a0,a0,1
a08029bc:	90850000 	lbu	a1,0(a0)
a08029c0:	54a0fff9 	bnezl	a1,a08029a8 <printstr+0x18>
a08029c4:	2403270f 	li	v1,9999
a08029c8:	03e00008 	jr	ra
a08029cc:	00000000 	nop

a08029d0 <print_color>:
a08029d0:	27bdffe8 	addiu	sp,sp,-24
a08029d4:	afb00010 	sw	s0,16(sp)
a08029d8:	00808021 	move	s0,a0
a08029dc:	afbf0014 	sw	ra,20(sp)
a08029e0:	0c200a64 	jal	a0802990 <printstr>
a08029e4:	00a02021 	move	a0,a1
a08029e8:	0c200a64 	jal	a0802990 <printstr>
a08029ec:	02002021 	move	a0,s0
a08029f0:	3c04a080 	lui	a0,0xa080
a08029f4:	8fbf0014 	lw	ra,20(sp)
a08029f8:	8fb00010 	lw	s0,16(sp)
a08029fc:	24843978 	addiu	a0,a0,14712
a0802a00:	08200a64 	j	a0802990 <printstr>
a0802a04:	27bd0018 	addiu	sp,sp,24

a0802a08 <delays>:
a0802a08:	24050005 	li	a1,5
a0802a0c:	24040004 	li	a0,4
a0802a10:	24030074 	li	v1,116
a0802a14:	240200d6 	li	v0,214
a0802a18:	2442ffff 	addiu	v0,v0,-1
a0802a1c:	304200ff 	andi	v0,v0,0xff
a0802a20:	1440fffe 	bnez	v0,a0802a1c <delays+0x14>
a0802a24:	2442ffff 	addiu	v0,v0,-1
a0802a28:	2462ffff 	addiu	v0,v1,-1
a0802a2c:	304300ff 	andi	v1,v0,0xff
a0802a30:	1460fff9 	bnez	v1,a0802a18 <delays+0x10>
a0802a34:	240200d6 	li	v0,214
a0802a38:	2482ffff 	addiu	v0,a0,-1
a0802a3c:	304400ff 	andi	a0,v0,0xff
a0802a40:	5480fff4 	bnezl	a0,a0802a14 <delays+0xc>
a0802a44:	24030074 	li	v1,116
a0802a48:	24a2ffff 	addiu	v0,a1,-1
a0802a4c:	304500ff 	andi	a1,v0,0xff
a0802a50:	54a0ffef 	bnezl	a1,a0802a10 <delays+0x8>
a0802a54:	24040004 	li	a0,4
a0802a58:	03e00008 	jr	ra
a0802a5c:	00000000 	nop

a0802a60 <strlen>:
a0802a60:	80820000 	lb	v0,0(a0)
a0802a64:	08200a9d 	j	a0802a74 <strlen+0x14>
a0802a68:	00001821 	move	v1,zero
a0802a6c:	80820000 	lb	v0,0(a0)
a0802a70:	24630001 	addiu	v1,v1,1
a0802a74:	5440fffd 	bnezl	v0,a0802a6c <strlen+0xc>
a0802a78:	24840001 	addiu	a0,a0,1
a0802a7c:	03e00008 	jr	ra
a0802a80:	00601021 	move	v0,v1

a0802a84 <print_str>:
a0802a84:	27bdffd8 	addiu	sp,sp,-40
a0802a88:	afb40020 	sw	s4,32(sp)
a0802a8c:	0080a021 	move	s4,a0
a0802a90:	00c02021 	move	a0,a2
a0802a94:	afb3001c 	sw	s3,28(sp)
a0802a98:	afb20018 	sw	s2,24(sp)
a0802a9c:	afb10014 	sw	s1,20(sp)
a0802aa0:	afb00010 	sw	s0,16(sp)
a0802aa4:	afbf0024 	sw	ra,36(sp)
a0802aa8:	00c09821 	move	s3,a2
a0802aac:	0c200a98 	jal	a0802a60 <strlen>
a0802ab0:	00a09021 	move	s2,a1
a0802ab4:	00408821 	move	s1,v0
a0802ab8:	1840000a 	blez	v0,a0802ae4 <print_str+0x60>
a0802abc:	00008021 	move	s0,zero
a0802ac0:	02701021 	addu	v0,s3,s0
a0802ac4:	80460000 	lb	a2,0(v0)
a0802ac8:	02502821 	addu	a1,s2,s0
a0802acc:	02802021 	move	a0,s4
a0802ad0:	0c2001f3 	jal	a08007cc <print_char>
a0802ad4:	26100001 	addiu	s0,s0,1
a0802ad8:	0211182a 	slt	v1,s0,s1
a0802adc:	1460fff9 	bnez	v1,a0802ac4 <print_str+0x40>
a0802ae0:	02701021 	addu	v0,s3,s0
a0802ae4:	8fbf0024 	lw	ra,36(sp)
a0802ae8:	8fb40020 	lw	s4,32(sp)
a0802aec:	8fb3001c 	lw	s3,28(sp)
a0802af0:	8fb20018 	lw	s2,24(sp)
a0802af4:	8fb10014 	lw	s1,20(sp)
a0802af8:	8fb00010 	lw	s0,16(sp)
a0802afc:	03e00008 	jr	ra
a0802b00:	27bd0028 	addiu	sp,sp,40

a0802b04 <atoi>:
a0802b04:	90850000 	lbu	a1,0(a0)
a0802b08:	00803021 	move	a2,a0
a0802b0c:	24a2ffd0 	addiu	v0,a1,-48
a0802b10:	304200ff 	andi	v0,v0,0xff
a0802b14:	2c42000a 	sltiu	v0,v0,10
a0802b18:	1040000e 	beqz	v0,a0802b54 <atoi+0x50>
a0802b1c:	00003821 	move	a3,zero
a0802b20:	24c60001 	addiu	a2,a2,1
a0802b24:	00051600 	sll	v0,a1,0x18
a0802b28:	90c50000 	lbu	a1,0(a2)
a0802b2c:	00071880 	sll	v1,a3,0x2
a0802b30:	00671821 	addu	v1,v1,a3
a0802b34:	24a4ffd0 	addiu	a0,a1,-48
a0802b38:	00021603 	sra	v0,v0,0x18
a0802b3c:	00031840 	sll	v1,v1,0x1
a0802b40:	308400ff 	andi	a0,a0,0xff
a0802b44:	00621821 	addu	v1,v1,v0
a0802b48:	2c84000a 	sltiu	a0,a0,10
a0802b4c:	1480fff4 	bnez	a0,a0802b20 <atoi+0x1c>
a0802b50:	2467ffd0 	addiu	a3,v1,-48
a0802b54:	03e00008 	jr	ra
a0802b58:	00e01021 	move	v0,a3

a0802b5c <reverse>:
a0802b5c:	27bdffe8 	addiu	sp,sp,-24
a0802b60:	afb00010 	sw	s0,16(sp)
a0802b64:	afbf0014 	sw	ra,20(sp)
a0802b68:	0c200a98 	jal	a0802a60 <strlen>
a0802b6c:	00808021 	move	s0,a0
a0802b70:	2447ffff 	addiu	a3,v0,-1
a0802b74:	18e0000b 	blez	a3,a0802ba4 <reverse+0x48>
a0802b78:	00004021 	move	t0,zero
a0802b7c:	02082021 	addu	a0,s0,t0
a0802b80:	02072821 	addu	a1,s0,a3
a0802b84:	80860000 	lb	a2,0(a0)
a0802b88:	90a30000 	lbu	v1,0(a1)
a0802b8c:	25080001 	addiu	t0,t0,1
a0802b90:	24e7ffff 	addiu	a3,a3,-1
a0802b94:	0107102a 	slt	v0,t0,a3
a0802b98:	a0830000 	sb	v1,0(a0)
a0802b9c:	1440fff7 	bnez	v0,a0802b7c <reverse+0x20>
a0802ba0:	a0a60000 	sb	a2,0(a1)
a0802ba4:	8fbf0014 	lw	ra,20(sp)
a0802ba8:	8fb00010 	lw	s0,16(sp)
a0802bac:	03e00008 	jr	ra
a0802bb0:	27bd0018 	addiu	sp,sp,24

a0802bb4 <itohex>:
a0802bb4:	08200af4 	j	a0802bd0 <itohex+0x1c>
a0802bb8:	00003021 	move	a2,zero
a0802bbc:	00041102 	srl	v0,a0,0x4
a0802bc0:	24c60001 	addiu	a2,a2,1
a0802bc4:	a0e90000 	sb	t1,0(a3)
a0802bc8:	1040000c 	beqz	v0,a0802bfc <itohex+0x48>
a0802bcc:	00402021 	move	a0,v0
a0802bd0:	3082000f 	andi	v0,a0,0xf
a0802bd4:	24490030 	addiu	t1,v0,48
a0802bd8:	24480057 	addiu	t0,v0,87
a0802bdc:	2842000a 	slti	v0,v0,10
a0802be0:	1440fff6 	bnez	v0,a0802bbc <itohex+0x8>
a0802be4:	00c53821 	addu	a3,a2,a1
a0802be8:	00041102 	srl	v0,a0,0x4
a0802bec:	24c60001 	addiu	a2,a2,1
a0802bf0:	a0e80000 	sb	t0,0(a3)
a0802bf4:	1440fff6 	bnez	v0,a0802bd0 <itohex+0x1c>
a0802bf8:	00402021 	move	a0,v0
a0802bfc:	00c51021 	addu	v0,a2,a1
a0802c00:	a0400000 	sb	zero,0(v0)
a0802c04:	08200ad7 	j	a0802b5c <reverse>
a0802c08:	00a02021 	move	a0,a1

a0802c0c <print_hex>:
a0802c0c:	27bdffc8 	addiu	sp,sp,-56
a0802c10:	00c02021 	move	a0,a2
a0802c14:	afb40030 	sw	s4,48(sp)
a0802c18:	00a0a021 	move	s4,a1
a0802c1c:	27a50010 	addiu	a1,sp,16
a0802c20:	afbf0034 	sw	ra,52(sp)
a0802c24:	afb3002c 	sw	s3,44(sp)
a0802c28:	afb10024 	sw	s1,36(sp)
a0802c2c:	afb00020 	sw	s0,32(sp)
a0802c30:	0c200aed 	jal	a0802bb4 <itohex>
a0802c34:	afb20028 	sw	s2,40(sp)
a0802c38:	0c200a98 	jal	a0802a60 <strlen>
a0802c3c:	27a40010 	addiu	a0,sp,16
a0802c40:	00408821 	move	s1,v0
a0802c44:	00008021 	move	s0,zero
a0802c48:	1840000b 	blez	v0,a0802c78 <print_hex+0x6c>
a0802c4c:	3c13a080 	lui	s3,0xa080
a0802c50:	27b20010 	addiu	s2,sp,16
a0802c54:	02501021 	addu	v0,s2,s0
a0802c58:	80460000 	lb	a2,0(v0)
a0802c5c:	8e643cb0 	lw	a0,15536(s3)
a0802c60:	02902821 	addu	a1,s4,s0
a0802c64:	0c2001f3 	jal	a08007cc <print_char>
a0802c68:	26100001 	addiu	s0,s0,1
a0802c6c:	0211182a 	slt	v1,s0,s1
a0802c70:	1460fff9 	bnez	v1,a0802c58 <print_hex+0x4c>
a0802c74:	02501021 	addu	v0,s2,s0
a0802c78:	8e623cb0 	lw	v0,15536(s3)
a0802c7c:	8fbf0034 	lw	ra,52(sp)
a0802c80:	8fb40030 	lw	s4,48(sp)
a0802c84:	24420001 	addiu	v0,v0,1
a0802c88:	ae623cb0 	sw	v0,15536(s3)
a0802c8c:	8fb20028 	lw	s2,40(sp)
a0802c90:	8fb3002c 	lw	s3,44(sp)
a0802c94:	8fb10024 	lw	s1,36(sp)
a0802c98:	8fb00020 	lw	s0,32(sp)
a0802c9c:	03e00008 	jr	ra
a0802ca0:	27bd0038 	addiu	sp,sp,56

a0802ca4 <itoa>:
a0802ca4:	3c02cccc 	lui	v0,0xcccc
a0802ca8:	00803021 	move	a2,a0
a0802cac:	3448cccd 	ori	t0,v0,0xcccd
a0802cb0:	00003821 	move	a3,zero
a0802cb4:	00c80019 	multu	a2,t0
a0802cb8:	00e52021 	addu	a0,a3,a1
a0802cbc:	24e70001 	addiu	a3,a3,1
a0802cc0:	00001010 	mfhi	v0
a0802cc4:	000210c2 	srl	v0,v0,0x3
a0802cc8:	00021880 	sll	v1,v0,0x2
a0802ccc:	00621821 	addu	v1,v1,v0
a0802cd0:	00031840 	sll	v1,v1,0x1
a0802cd4:	00c31823 	subu	v1,a2,v1
a0802cd8:	24630030 	addiu	v1,v1,48
a0802cdc:	a0830000 	sb	v1,0(a0)
a0802ce0:	1440fff4 	bnez	v0,a0802cb4 <itoa+0x10>
a0802ce4:	00403021 	move	a2,v0
a0802ce8:	00e51021 	addu	v0,a3,a1
a0802cec:	a0400000 	sb	zero,0(v0)
a0802cf0:	08200ad7 	j	a0802b5c <reverse>
a0802cf4:	00a02021 	move	a0,a1

a0802cf8 <print_int>:
a0802cf8:	27bdffc8 	addiu	sp,sp,-56
a0802cfc:	afb00020 	sw	s0,32(sp)
a0802d00:	000687c2 	srl	s0,a2,0x1f
a0802d04:	afb3002c 	sw	s3,44(sp)
a0802d08:	afb10024 	sw	s1,36(sp)
a0802d0c:	afbf0034 	sw	ra,52(sp)
a0802d10:	afb40030 	sw	s4,48(sp)
a0802d14:	afb20028 	sw	s2,40(sp)
a0802d18:	00809821 	move	s3,a0
a0802d1c:	12000002 	beqz	s0,a0802d28 <print_int+0x30>
a0802d20:	00a08821 	move	s1,a1
a0802d24:	00063023 	negu	a2,a2
a0802d28:	00c02021 	move	a0,a2
a0802d2c:	0c200b29 	jal	a0802ca4 <itoa>
a0802d30:	27a50010 	addiu	a1,sp,16
a0802d34:	0c200a98 	jal	a0802a60 <strlen>
a0802d38:	27a40010 	addiu	a0,sp,16
a0802d3c:	16000019 	bnez	s0,a0802da4 <print_int+0xac>
a0802d40:	00409021 	move	s2,v0
a0802d44:	00008021 	move	s0,zero
a0802d48:	1a40000b 	blez	s2,a0802d78 <print_int+0x80>
a0802d4c:	3c14a080 	lui	s4,0xa080
a0802d50:	27b30010 	addiu	s3,sp,16
a0802d54:	02701021 	addu	v0,s3,s0
a0802d58:	80460000 	lb	a2,0(v0)
a0802d5c:	8e843cb0 	lw	a0,15536(s4)
a0802d60:	02202821 	move	a1,s1
a0802d64:	0c2001f3 	jal	a08007cc <print_char>
a0802d68:	26100001 	addiu	s0,s0,1
a0802d6c:	0212182a 	slt	v1,s0,s2
a0802d70:	1460fff8 	bnez	v1,a0802d54 <print_int+0x5c>
a0802d74:	26310001 	addiu	s1,s1,1
a0802d78:	8e823cb0 	lw	v0,15536(s4)
a0802d7c:	8fbf0034 	lw	ra,52(sp)
a0802d80:	8fb3002c 	lw	s3,44(sp)
a0802d84:	24420001 	addiu	v0,v0,1
a0802d88:	ae823cb0 	sw	v0,15536(s4)
a0802d8c:	8fb20028 	lw	s2,40(sp)
a0802d90:	8fb40030 	lw	s4,48(sp)
a0802d94:	8fb10024 	lw	s1,36(sp)
a0802d98:	8fb00020 	lw	s0,32(sp)
a0802d9c:	03e00008 	jr	ra
a0802da0:	27bd0038 	addiu	sp,sp,56
a0802da4:	02202821 	move	a1,s1
a0802da8:	02602021 	move	a0,s3
a0802dac:	2406002d 	li	a2,45
a0802db0:	0c2001f3 	jal	a08007cc <print_char>
a0802db4:	26310001 	addiu	s1,s1,1
a0802db8:	08200b52 	j	a0802d48 <print_int+0x50>
a0802dbc:	00008021 	move	s0,zero

a0802dc0 <print_location>:
a0802dc0:	27bdffa0 	addiu	sp,sp,-96
a0802dc4:	afb00050 	sw	s0,80(sp)
a0802dc8:	00808021 	move	s0,a0
a0802dcc:	3c04a080 	lui	a0,0xa080
a0802dd0:	24843980 	addiu	a0,a0,14720
a0802dd4:	afbf0058 	sw	ra,88(sp)
a0802dd8:	afb10054 	sw	s1,84(sp)
a0802ddc:	0c200a64 	jal	a0802990 <printstr>
a0802de0:	00a08821 	move	s1,a1
a0802de4:	27a50010 	addiu	a1,sp,16
a0802de8:	0c200b29 	jal	a0802ca4 <itoa>
a0802dec:	02002021 	move	a0,s0
a0802df0:	0c200a64 	jal	a0802990 <printstr>
a0802df4:	27a40010 	addiu	a0,sp,16
a0802df8:	3c04a080 	lui	a0,0xa080
a0802dfc:	27b00030 	addiu	s0,sp,48
a0802e00:	0c200a64 	jal	a0802990 <printstr>
a0802e04:	24843984 	addiu	a0,a0,14724
a0802e08:	02002821 	move	a1,s0
a0802e0c:	0c200b29 	jal	a0802ca4 <itoa>
a0802e10:	02202021 	move	a0,s1
a0802e14:	0c200a64 	jal	a0802990 <printstr>
a0802e18:	02002021 	move	a0,s0
a0802e1c:	3c04a080 	lui	a0,0xa080
a0802e20:	0c200a64 	jal	a0802990 <printstr>
a0802e24:	24843988 	addiu	a0,a0,14728
a0802e28:	8fbf0058 	lw	ra,88(sp)
a0802e2c:	8fb10054 	lw	s1,84(sp)
a0802e30:	8fb00050 	lw	s0,80(sp)
a0802e34:	03e00008 	jr	ra
a0802e38:	27bd0060 	addiu	sp,sp,96

a0802e3c <clear_screen>:
a0802e3c:	27bdffe0 	addiu	sp,sp,-32
a0802e40:	00a7102a 	slt	v0,a1,a3
a0802e44:	afb20018 	sw	s2,24(sp)
a0802e48:	afb00010 	sw	s0,16(sp)
a0802e4c:	afbf001c 	sw	ra,28(sp)
a0802e50:	afb10014 	sw	s1,20(sp)
a0802e54:	00e09021 	move	s2,a3
a0802e58:	1040000b 	beqz	v0,a0802e88 <clear_screen+0x4c>
a0802e5c:	00a08021 	move	s0,a1
a0802e60:	3c11a080 	lui	s1,0xa080
a0802e64:	02002021 	move	a0,s0
a0802e68:	0c200b70 	jal	a0802dc0 <print_location>
a0802e6c:	00002821 	move	a1,zero
a0802e70:	26100001 	addiu	s0,s0,1
a0802e74:	0c200a64 	jal	a0802990 <printstr>
a0802e78:	2624398c 	addiu	a0,s1,14732
a0802e7c:	0212102a 	slt	v0,s0,s2
a0802e80:	5440fff9 	bnezl	v0,a0802e68 <clear_screen+0x2c>
a0802e84:	02002021 	move	a0,s0
a0802e88:	8fbf001c 	lw	ra,28(sp)
a0802e8c:	8fb20018 	lw	s2,24(sp)
a0802e90:	8fb10014 	lw	s1,20(sp)
a0802e94:	8fb00010 	lw	s0,16(sp)
a0802e98:	03e00008 	jr	ra
a0802e9c:	27bd0020 	addiu	sp,sp,32

a0802ea0 <same_string>:
a0802ea0:	90870000 	lbu	a3,0(a0)
a0802ea4:	00073600 	sll	a2,a3,0x18
a0802ea8:	00063603 	sra	a2,a2,0x18
a0802eac:	50c0000e 	beqzl	a2,a0802ee8 <same_string+0x48>
a0802eb0:	90a20000 	lbu	v0,0(a1)
a0802eb4:	90a20000 	lbu	v0,0(a1)
a0802eb8:	00021e00 	sll	v1,v0,0x18
a0802ebc:	00031e03 	sra	v1,v1,0x18
a0802ec0:	5060000a 	beqzl	v1,a0802eec <same_string+0x4c>
a0802ec4:	00471026 	xor	v0,v0,a3
a0802ec8:	14c3000c 	bne	a2,v1,a0802efc <same_string+0x5c>
a0802ecc:	24840001 	addiu	a0,a0,1
a0802ed0:	90870000 	lbu	a3,0(a0)
a0802ed4:	00073600 	sll	a2,a3,0x18
a0802ed8:	00063603 	sra	a2,a2,0x18
a0802edc:	14c0fff5 	bnez	a2,a0802eb4 <same_string+0x14>
a0802ee0:	24a50001 	addiu	a1,a1,1
a0802ee4:	90a20000 	lbu	v0,0(a1)
a0802ee8:	00471026 	xor	v0,v0,a3
a0802eec:	00021600 	sll	v0,v0,0x18
a0802ef0:	00021603 	sra	v0,v0,0x18
a0802ef4:	03e00008 	jr	ra
a0802ef8:	2c420001 	sltiu	v0,v0,1
a0802efc:	03e00008 	jr	ra
a0802f00:	00001021 	move	v0,zero

a0802f04 <bcopy>:
a0802f04:	10c0000c 	beqz	a2,a0802f38 <bcopy+0x34>
a0802f08:	00804021 	move	t0,a0
a0802f0c:	0085102b 	sltu	v0,a0,a1
a0802f10:	1040000b 	beqz	v0,a0802f40 <bcopy+0x3c>
a0802f14:	24c7ffff 	addiu	a3,a2,-1
a0802f18:	04e00012 	bltz	a3,a0802f64 <bcopy+0x60>
a0802f1c:	00000000 	nop
a0802f20:	01071021 	addu	v0,t0,a3
a0802f24:	90440000 	lbu	a0,0(v0)
a0802f28:	00a71821 	addu	v1,a1,a3
a0802f2c:	24e7ffff 	addiu	a3,a3,-1
a0802f30:	04e1fffb 	bgez	a3,a0802f20 <bcopy+0x1c>
a0802f34:	a0640000 	sb	a0,0(v1)
a0802f38:	03e00008 	jr	ra
a0802f3c:	00000000 	nop
a0802f40:	18c0fffd 	blez	a2,a0802f38 <bcopy+0x34>
a0802f44:	00003821 	move	a3,zero
a0802f48:	01071021 	addu	v0,t0,a3
a0802f4c:	90440000 	lbu	a0,0(v0)
a0802f50:	00a71821 	addu	v1,a1,a3
a0802f54:	24e70001 	addiu	a3,a3,1
a0802f58:	00e6102a 	slt	v0,a3,a2
a0802f5c:	1440fffa 	bnez	v0,a0802f48 <bcopy+0x44>
a0802f60:	a0640000 	sb	a0,0(v1)
a0802f64:	03e00008 	jr	ra
a0802f68:	00000000 	nop

a0802f6c <bzero>:
a0802f6c:	18a00006 	blez	a1,a0802f88 <bzero+0x1c>
a0802f70:	00003021 	move	a2,zero
a0802f74:	00861821 	addu	v1,a0,a2
a0802f78:	24c60001 	addiu	a2,a2,1
a0802f7c:	00c5102a 	slt	v0,a2,a1
a0802f80:	1440fffc 	bnez	v0,a0802f74 <bzero+0x8>
a0802f84:	a0600000 	sb	zero,0(v1)
a0802f88:	03e00008 	jr	ra
a0802f8c:	00000000 	nop

a0802f90 <srand>:
a0802f90:	3c02a080 	lui	v0,0xa080
a0802f94:	03e00008 	jr	ra
a0802f98:	ac443cb4 	sw	a0,15540(v0)

a0802f9c <rand_step>:
a0802f9c:	3c0341c6 	lui	v1,0x41c6
a0802fa0:	34634e6d 	ori	v1,v1,0x4e6d
a0802fa4:	00830018 	mult	a0,v1
a0802fa8:	00001012 	mflo	v0
a0802fac:	24423039 	addiu	v0,v0,12345
a0802fb0:	03e00008 	jr	ra
a0802fb4:	00021402 	srl	v0,v0,0x10

a0802fb8 <rand>:
a0802fb8:	27bdffe8 	addiu	sp,sp,-24
a0802fbc:	afb00010 	sw	s0,16(sp)
a0802fc0:	3c10a080 	lui	s0,0xa080
a0802fc4:	8e043cb4 	lw	a0,15540(s0)
a0802fc8:	afbf0014 	sw	ra,20(sp)
a0802fcc:	0c200be7 	jal	a0802f9c <rand_step>
a0802fd0:	00000000 	nop
a0802fd4:	ae023cb4 	sw	v0,15540(s0)
a0802fd8:	8fbf0014 	lw	ra,20(sp)
a0802fdc:	8fb00010 	lw	s0,16(sp)
a0802fe0:	03e00008 	jr	ra
a0802fe4:	27bd0018 	addiu	sp,sp,24
	...

a0802ff0 <queue_init>:
a0802ff0:	ac840000 	sw	a0,0(a0)
a0802ff4:	03e00008 	jr	ra
a0802ff8:	ac840004 	sw	a0,4(a0)

a0802ffc <dequeue>:
a0802ffc:	8c850004 	lw	a1,4(a0)
a0803000:	50a40008 	beql	a1,a0,a0803024 <dequeue+0x28>
a0803004:	00002821 	move	a1,zero
a0803008:	8ca20000 	lw	v0,0(a1)
a080300c:	8ca30004 	lw	v1,4(a1)
a0803010:	ac430004 	sw	v1,4(v0)
a0803014:	8ca40004 	lw	a0,4(a1)
a0803018:	ac820000 	sw	v0,0(a0)
a080301c:	03e00008 	jr	ra
a0803020:	00a01021 	move	v0,a1
a0803024:	03e00008 	jr	ra
a0803028:	00a01021 	move	v0,a1

a080302c <enqueue>:
a080302c:	8c830000 	lw	v1,0(a0)
a0803030:	aca40004 	sw	a0,4(a1)
a0803034:	ac650004 	sw	a1,4(v1)
a0803038:	8ca20004 	lw	v0,4(a1)
a080303c:	aca30000 	sw	v1,0(a1)
a0803040:	03e00008 	jr	ra
a0803044:	ac450000 	sw	a1,0(v0)

a0803048 <is_empty>:
a0803048:	8c820004 	lw	v0,4(a0)
a080304c:	00441026 	xor	v0,v0,a0
a0803050:	03e00008 	jr	ra
a0803054:	2c420001 	sltiu	v0,v0,1

a0803058 <peek>:
a0803058:	8c830004 	lw	v1,4(a0)
a080305c:	10640002 	beq	v1,a0,a0803068 <peek+0x10>
a0803060:	00001021 	move	v0,zero
a0803064:	00601021 	move	v0,v1
a0803068:	03e00008 	jr	ra
a080306c:	00000000 	nop

a0803070 <enqueue_sort>:
a0803070:	27bdffd8 	addiu	sp,sp,-40
a0803074:	afb3001c 	sw	s3,28(sp)
a0803078:	afb20018 	sw	s2,24(sp)
a080307c:	afb10014 	sw	s1,20(sp)
a0803080:	afbf0020 	sw	ra,32(sp)
a0803084:	afb00010 	sw	s0,16(sp)
a0803088:	8c900004 	lw	s0,4(a0)
a080308c:	00808821 	move	s1,a0
a0803090:	00a09021 	move	s2,a1
a0803094:	02111826 	xor	v1,s0,s1
a0803098:	0003182b 	sltu	v1,zero,v1
a080309c:	0010102b 	sltu	v0,zero,s0
a08030a0:	00431024 	and	v0,v0,v1
a08030a4:	1040000d 	beqz	v0,a08030dc <enqueue_sort+0x6c>
a08030a8:	00c09821 	move	s3,a2
a08030ac:	02002821 	move	a1,s0
a08030b0:	0260f809 	jalr	s3
a08030b4:	02402021 	move	a0,s2
a08030b8:	14400011 	bnez	v0,a0803100 <enqueue_sort+0x90>
a08030bc:	02002021 	move	a0,s0
a08030c0:	8e100004 	lw	s0,4(s0)
a08030c4:	02111826 	xor	v1,s0,s1
a08030c8:	0003182b 	sltu	v1,zero,v1
a08030cc:	0010102b 	sltu	v0,zero,s0
a08030d0:	00431024 	and	v0,v0,v1
a08030d4:	1440fff6 	bnez	v0,a08030b0 <enqueue_sort+0x40>
a08030d8:	02002821 	move	a1,s0
a08030dc:	02202021 	move	a0,s1
a08030e0:	02402821 	move	a1,s2
a08030e4:	8fbf0020 	lw	ra,32(sp)
a08030e8:	8fb3001c 	lw	s3,28(sp)
a08030ec:	8fb20018 	lw	s2,24(sp)
a08030f0:	8fb10014 	lw	s1,20(sp)
a08030f4:	8fb00010 	lw	s0,16(sp)
a08030f8:	08200c0b 	j	a080302c <enqueue>
a08030fc:	27bd0028 	addiu	sp,sp,40
a0803100:	02402821 	move	a1,s2
a0803104:	8fbf0020 	lw	ra,32(sp)
a0803108:	8fb3001c 	lw	s3,28(sp)
a080310c:	8fb20018 	lw	s2,24(sp)
a0803110:	8fb10014 	lw	s1,20(sp)
a0803114:	8fb00010 	lw	s0,16(sp)
a0803118:	08200c0b 	j	a080302c <enqueue>
a080311c:	27bd0028 	addiu	sp,sp,40

a0803120 <init_interrupts>:
a0803120:	3c07a081 	lui	a3,0xa081
a0803124:	27bdffe0 	addiu	sp,sp,-32
a0803128:	24e6f418 	addiu	a2,a3,-3048
a080312c:	3c02a080 	lui	v0,0xa080
a0803130:	afbf0018 	sw	ra,24(sp)
a0803134:	afb10014 	sw	s1,20(sp)
a0803138:	afb00010 	sw	s0,16(sp)
a080313c:	24420de8 	addiu	v0,v0,3560
a0803140:	00c02021 	move	a0,a2
a0803144:	2403001f 	li	v1,31
a0803148:	2463ffff 	addiu	v1,v1,-1
a080314c:	ac820000 	sw	v0,0(a0)
a0803150:	0461fffd 	bgez	v1,a0803148 <init_interrupts+0x28>
a0803154:	24840004 	addiu	a0,a0,4
a0803158:	3c03a080 	lui	v1,0xa080
a080315c:	24630ff0 	addiu	v1,v1,4080
a0803160:	3c02a080 	lui	v0,0xa080
a0803164:	3c11a080 	lui	s1,0xa080
a0803168:	3c10a080 	lui	s0,0xa080
a080316c:	244211d4 	addiu	v0,v0,4564
a0803170:	acc30020 	sw	v1,32(a2)
a0803174:	26310d98 	addiu	s1,s1,3480
a0803178:	3c04bfc0 	lui	a0,0xbfc0
a080317c:	24050380 	li	a1,896
a0803180:	26100dd0 	addiu	s0,s0,3536
a0803184:	ace2f418 	sw	v0,-3048(a3)
a0803188:	0c200bdb 	jal	a0802f6c <bzero>
a080318c:	02118023 	subu	s0,s0,s1
a0803190:	3c05bfc0 	lui	a1,0xbfc0
a0803194:	02003021 	move	a2,s0
a0803198:	02202021 	move	a0,s1
a080319c:	0c200bc1 	jal	a0802f04 <bcopy>
a08031a0:	34a50380 	ori	a1,a1,0x380
a08031a4:	3c048000 	lui	a0,0x8000
a08031a8:	0c200bdb 	jal	a0802f6c <bzero>
a08031ac:	24050180 	li	a1,384
a08031b0:	3c058000 	lui	a1,0x8000
a08031b4:	02003021 	move	a2,s0
a08031b8:	02202021 	move	a0,s1
a08031bc:	0c200bc1 	jal	a0802f04 <bcopy>
a08031c0:	34a50180 	ori	a1,a1,0x180
a08031c4:	3c0408f0 	lui	a0,0x8f0
a08031c8:	0c200361 	jal	a0800d84 <reset_timer>
a08031cc:	3484d180 	ori	a0,a0,0xd180
a08031d0:	0c20050c 	jal	a0801430 <get_cp0_status>
a08031d4:	00000000 	nop
a08031d8:	34428001 	ori	v0,v0,0x8001
a08031dc:	3c041000 	lui	a0,0x1000
a08031e0:	8fbf0018 	lw	ra,24(sp)
a08031e4:	8fb10014 	lw	s1,20(sp)
a08031e8:	8fb00010 	lw	s0,16(sp)
a08031ec:	00442025 	or	a0,v0,a0
a08031f0:	0820050f 	j	a080143c <set_cp0_status>
a08031f4:	27bd0020 	addiu	sp,sp,32

a08031f8 <c_simple_handler>:
a08031f8:	03e00008 	jr	ra
a08031fc:	00000000 	nop

a0803200 <timer_irq>:
a0803200:	27bdffe8 	addiu	sp,sp,-24
a0803204:	3c05a080 	lui	a1,0xa080
a0803208:	afbf0010 	sw	ra,16(sp)
a080320c:	8ca23b10 	lw	v0,15120(a1)
a0803210:	8ca33b14 	lw	v1,15124(a1)
a0803214:	3c0408f0 	lui	a0,0x8f0
a0803218:	24420001 	addiu	v0,v0,1
a080321c:	2c460001 	sltiu	a2,v0,1
a0803220:	00661821 	addu	v1,v1,a2
a0803224:	3484d180 	ori	a0,a0,0xd180
a0803228:	aca23b10 	sw	v0,15120(a1)
a080322c:	aca33b14 	sw	v1,15124(a1)
a0803230:	0c200361 	jal	a0800d84 <reset_timer>
a0803234:	00000000 	nop
a0803238:	3c02a080 	lui	v0,0xa080
a080323c:	8c433b20 	lw	v1,15136(v0)
a0803240:	8c640140 	lw	a0,320(v1)
a0803244:	10800003 	beqz	a0,a0803254 <timer_irq+0x54>
a0803248:	8fbf0010 	lw	ra,16(sp)
a080324c:	03e00008 	jr	ra
a0803250:	27bd0018 	addiu	sp,sp,24
a0803254:	0c2008d5 	jal	a0802354 <put_current_running>
a0803258:	00000000 	nop
a080325c:	0c2002d4 	jal	a0800b50 <scheduler_entry>
a0803260:	00000000 	nop
a0803264:	8fbf0010 	lw	ra,16(sp)
a0803268:	08200512 	j	a0801448 <enter_critical>
a080326c:	27bd0018 	addiu	sp,sp,24

a0803270 <system_call_helper>:
a0803270:	27bdffd8 	addiu	sp,sp,-40
a0803274:	afb10014 	sw	s1,20(sp)
a0803278:	3c11a080 	lui	s1,0xa080
a080327c:	8e223b20 	lw	v0,15136(s1)
a0803280:	afb40020 	sw	s4,32(sp)
a0803284:	afb3001c 	sw	s3,28(sp)
a0803288:	afb20018 	sw	s2,24(sp)
a080328c:	afb00010 	sw	s0,16(sp)
a0803290:	afbf0024 	sw	ra,36(sp)
a0803294:	8c430140 	lw	v1,320(v0)
a0803298:	00808021 	move	s0,a0
a080329c:	00a09021 	move	s2,a1
a08032a0:	00c09821 	move	s3,a2
a08032a4:	10600020 	beqz	v1,a0803328 <system_call_helper+0xb8>
a08032a8:	00e0a021 	move	s4,a3
a08032ac:	3c06a080 	lui	a2,0xa080
a08032b0:	24c63818 	addiu	a2,a2,14360
a08032b4:	00002021 	move	a0,zero
a08032b8:	0c200aa1 	jal	a0802a84 <print_str>
a08032bc:	00002821 	move	a1,zero
a08032c0:	3c06a080 	lui	a2,0xa080
a08032c4:	24c639dc 	addiu	a2,a2,14812
a08032c8:	00002021 	move	a0,zero
a08032cc:	0c200aa1 	jal	a0802a84 <print_str>
a08032d0:	24050013 	li	a1,19
a08032d4:	3c06a080 	lui	a2,0xa080
a08032d8:	24c63848 	addiu	a2,a2,14408
a08032dc:	24040001 	li	a0,1
a08032e0:	0c200aa1 	jal	a0802a84 <print_str>
a08032e4:	00002821 	move	a1,zero
a08032e8:	3c06a080 	lui	a2,0xa080
a08032ec:	24c63a20 	addiu	a2,a2,14880
a08032f0:	24040001 	li	a0,1
a08032f4:	0c200aa1 	jal	a0802a84 <print_str>
a08032f8:	24050006 	li	a1,6
a08032fc:	3c06a080 	lui	a2,0xa080
a0803300:	24c6385c 	addiu	a2,a2,14428
a0803304:	24040002 	li	a0,2
a0803308:	0c200aa1 	jal	a0802a84 <print_str>
a080330c:	00002821 	move	a1,zero
a0803310:	24040002 	li	a0,2
a0803314:	24050006 	li	a1,6
a0803318:	0c200b3e 	jal	a0802cf8 <print_int>
a080331c:	2406005f 	li	a2,95
a0803320:	08200cc8 	j	a0803320 <system_call_helper+0xb0>
a0803324:	00000000 	nop
a0803328:	0c200512 	jal	a0801448 <enter_critical>
a080332c:	00000000 	nop
a0803330:	8e223b20 	lw	v0,15136(s1)
a0803334:	8c430140 	lw	v1,320(v0)
a0803338:	24630001 	addiu	v1,v1,1
a080333c:	0c200522 	jal	a0801488 <leave_critical>
a0803340:	ac430140 	sw	v1,320(v0)
a0803344:	2e020011 	sltiu	v0,s0,17
a0803348:	50400001 	beqzl	v0,a0803350 <system_call_helper+0xe0>
a080334c:	24100001 	li	s0,1
a0803350:	3c02a081 	lui	v0,0xa081
a0803354:	00101880 	sll	v1,s0,0x2
a0803358:	2442c6d0 	addiu	v0,v0,-14640
a080335c:	00621821 	addu	v1,v1,v0
a0803360:	8c620000 	lw	v0,0(v1)
a0803364:	02402021 	move	a0,s2
a0803368:	02602821 	move	a1,s3
a080336c:	0040f809 	jalr	v0
a0803370:	02803021 	move	a2,s4
a0803374:	0c200512 	jal	a0801448 <enter_critical>
a0803378:	00408021 	move	s0,v0
a080337c:	3c02a080 	lui	v0,0xa080
a0803380:	8c433b20 	lw	v1,15136(v0)
a0803384:	8c640140 	lw	a0,320(v1)
a0803388:	8c620138 	lw	v0,312(v1)
a080338c:	ac7000ac 	sw	s0,172(v1)
a0803390:	2484ffff 	addiu	a0,a0,-1
a0803394:	24420004 	addiu	v0,v0,4
a0803398:	ac620138 	sw	v0,312(v1)
a080339c:	14800009 	bnez	a0,a08033c4 <system_call_helper+0x154>
a08033a0:	ac640140 	sw	a0,320(v1)
a08033a4:	8fbf0024 	lw	ra,36(sp)
a08033a8:	8fb40020 	lw	s4,32(sp)
a08033ac:	8fb3001c 	lw	s3,28(sp)
a08033b0:	8fb20018 	lw	s2,24(sp)
a08033b4:	8fb10014 	lw	s1,20(sp)
a08033b8:	8fb00010 	lw	s0,16(sp)
a08033bc:	03e00008 	jr	ra
a08033c0:	27bd0028 	addiu	sp,sp,40
a08033c4:	3c06a080 	lui	a2,0xa080
a08033c8:	24c63818 	addiu	a2,a2,14360
a08033cc:	00002021 	move	a0,zero
a08033d0:	0c200aa1 	jal	a0802a84 <print_str>
a08033d4:	00002821 	move	a1,zero
a08033d8:	3c06a080 	lui	a2,0xa080
a08033dc:	24c63a2c 	addiu	a2,a2,14892
a08033e0:	00002021 	move	a0,zero
a08033e4:	0c200aa1 	jal	a0802a84 <print_str>
a08033e8:	24050013 	li	a1,19
a08033ec:	3c06a080 	lui	a2,0xa080
a08033f0:	24c63848 	addiu	a2,a2,14408
a08033f4:	24040001 	li	a0,1
a08033f8:	0c200aa1 	jal	a0802a84 <print_str>
a08033fc:	00002821 	move	a1,zero
a0803400:	3c06a080 	lui	a2,0xa080
a0803404:	24c63a20 	addiu	a2,a2,14880
a0803408:	24040001 	li	a0,1
a080340c:	0c200aa1 	jal	a0802a84 <print_str>
a0803410:	24050006 	li	a1,6
a0803414:	3c06a080 	lui	a2,0xa080
a0803418:	24c6385c 	addiu	a2,a2,14428
a080341c:	24040002 	li	a0,2
a0803420:	0c200aa1 	jal	a0802a84 <print_str>
a0803424:	00002821 	move	a1,zero
a0803428:	24040002 	li	a0,2
a080342c:	24050006 	li	a1,6
a0803430:	0c200b3e 	jal	a0802cf8 <print_int>
a0803434:	24060077 	li	a2,119
a0803438:	08200d0e 	j	a0803438 <system_call_helper+0x1c8>
a080343c:	00000000 	nop

a0803440 <invoke_syscall>:
a0803440:	afa50000 	sw	a1,0(sp)
a0803444:	afa60004 	sw	a2,4(sp)
a0803448:	afa70008 	sw	a3,8(sp)
a080344c:	00801020 	add	v0,a0,zero
a0803450:	00a02020 	add	a0,a1,zero
a0803454:	00c02820 	add	a1,a2,zero
a0803458:	00e03020 	add	a2,a3,zero
a080345c:	0000000c 	syscall
a0803460:	03e00008 	jr	ra
a0803464:	00000000 	nop
	...

a0803470 <ramdisk_find>:
a0803470:	27bdffe0 	addiu	sp,sp,-32
a0803474:	afb20018 	sw	s2,24(sp)
a0803478:	afb10014 	sw	s1,20(sp)
a080347c:	afbf001c 	sw	ra,28(sp)
a0803480:	afb00010 	sw	s0,16(sp)
a0803484:	00809021 	move	s2,a0
a0803488:	08200d2c 	j	a08034b0 <ramdisk_find+0x40>
a080348c:	00008821 	move	s1,zero
a0803490:	0c200d72 	jal	a08035c8 <get_nth_file>
a0803494:	00000000 	nop
a0803498:	8c440000 	lw	a0,0(v0)
a080349c:	02402821 	move	a1,s2
a08034a0:	0c200ba8 	jal	a0802ea0 <same_string>
a08034a4:	00408021 	move	s0,v0
a08034a8:	5440000e 	bnezl	v0,a08034e4 <ramdisk_find+0x74>
a08034ac:	8e020004 	lw	v0,4(s0)
a08034b0:	0c200d70 	jal	a08035c0 <get_num_files>
a08034b4:	00000000 	nop
a08034b8:	0222102a 	slt	v0,s1,v0
a08034bc:	02202021 	move	a0,s1
a08034c0:	1440fff3 	bnez	v0,a0803490 <ramdisk_find+0x20>
a08034c4:	26310001 	addiu	s1,s1,1
a08034c8:	8fbf001c 	lw	ra,28(sp)
a08034cc:	8fb20018 	lw	s2,24(sp)
a08034d0:	8fb10014 	lw	s1,20(sp)
a08034d4:	8fb00010 	lw	s0,16(sp)
a08034d8:	00001021 	move	v0,zero
a08034dc:	03e00008 	jr	ra
a08034e0:	27bd0020 	addiu	sp,sp,32
a08034e4:	8fbf001c 	lw	ra,28(sp)
a08034e8:	8fb20018 	lw	s2,24(sp)
a08034ec:	8fb10014 	lw	s1,20(sp)
a08034f0:	8fb00010 	lw	s0,16(sp)
a08034f4:	03e00008 	jr	ra
a08034f8:	27bd0020 	addiu	sp,sp,32

a08034fc <ramdisk_find_File>:
a08034fc:	27bdffe0 	addiu	sp,sp,-32
a0803500:	afb20018 	sw	s2,24(sp)
a0803504:	afb10014 	sw	s1,20(sp)
a0803508:	afbf001c 	sw	ra,28(sp)
a080350c:	afb00010 	sw	s0,16(sp)
a0803510:	00809021 	move	s2,a0
a0803514:	08200d4f 	j	a080353c <ramdisk_find_File+0x40>
a0803518:	00008821 	move	s1,zero
a080351c:	0c200d72 	jal	a08035c8 <get_nth_file>
a0803520:	00000000 	nop
a0803524:	8c440000 	lw	a0,0(v0)
a0803528:	02402821 	move	a1,s2
a080352c:	0c200ba8 	jal	a0802ea0 <same_string>
a0803530:	00408021 	move	s0,v0
a0803534:	1440000e 	bnez	v0,a0803570 <ramdisk_find_File+0x74>
a0803538:	02001021 	move	v0,s0
a080353c:	0c200d70 	jal	a08035c0 <get_num_files>
a0803540:	00000000 	nop
a0803544:	0222102a 	slt	v0,s1,v0
a0803548:	02202021 	move	a0,s1
a080354c:	1440fff3 	bnez	v0,a080351c <ramdisk_find_File+0x20>
a0803550:	26310001 	addiu	s1,s1,1
a0803554:	8fbf001c 	lw	ra,28(sp)
a0803558:	8fb20018 	lw	s2,24(sp)
a080355c:	8fb10014 	lw	s1,20(sp)
a0803560:	8fb00010 	lw	s0,16(sp)
a0803564:	00001021 	move	v0,zero
a0803568:	03e00008 	jr	ra
a080356c:	27bd0020 	addiu	sp,sp,32
a0803570:	8fbf001c 	lw	ra,28(sp)
a0803574:	8fb20018 	lw	s2,24(sp)
a0803578:	8fb10014 	lw	s1,20(sp)
a080357c:	8fb00010 	lw	s0,16(sp)
a0803580:	03e00008 	jr	ra
a0803584:	27bd0020 	addiu	sp,sp,32
	...

a0803590 <init_mbox>:
a0803590:	03e00008 	jr	ra
a0803594:	00000000 	nop

a0803598 <do_mbox_open>:
a0803598:	03e00008 	jr	ra
a080359c:	00000000 	nop

a08035a0 <do_mbox_close>:
a08035a0:	03e00008 	jr	ra
a08035a4:	00000000 	nop

a08035a8 <do_mbox_is_full>:
a08035a8:	03e00008 	jr	ra
a08035ac:	00000000 	nop

a08035b0 <do_mbox_send>:
a08035b0:	03e00008 	jr	ra
a08035b4:	00000000 	nop

a08035b8 <do_mbox_recv>:
a08035b8:	03e00008 	jr	ra
a08035bc:	00000000 	nop

a08035c0 <get_num_files>:
a08035c0:	03e00008 	jr	ra
a08035c4:	24020003 	li	v0,3

a08035c8 <get_nth_file>:
a08035c8:	00041840 	sll	v1,a0,0x1
a08035cc:	00641821 	addu	v1,v1,a0
a08035d0:	3c02a080 	lui	v0,0xa080
a08035d4:	00031880 	sll	v1,v1,0x2
a08035d8:	24423a90 	addiu	v0,v0,14992
a08035dc:	03e00008 	jr	ra
a08035e0:	00621021 	addu	v0,v1,v0
	...

a08035f0 <theFatalMsg>:
a08035f0:	61746166 	daddi	s4,t3,24934
a08035f4:	7265206c 	0x7265206c
a08035f8:	20726f72 	addi	s2,v1,28530
a08035fc:	6c206e69 	ldr	zero,28265(at)
a0803600:	72505f70 	0x72505f70
a0803604:	21746e69 	addi	s4,t3,28265
	...
a0803610:	a0802230 	sb	zero,8752(a0)
a0803614:	a0801f30 	sb	zero,7984(a0)
a0803618:	a0801f30 	sb	zero,7984(a0)
a080361c:	a0801f30 	sb	zero,7984(a0)
a0803620:	a0801f30 	sb	zero,7984(a0)
a0803624:	a0801f30 	sb	zero,7984(a0)
a0803628:	a0801f30 	sb	zero,7984(a0)
a080362c:	a0801f30 	sb	zero,7984(a0)
a0803630:	a0801f30 	sb	zero,7984(a0)
a0803634:	a0801f30 	sb	zero,7984(a0)
a0803638:	a0801f30 	sb	zero,7984(a0)
a080363c:	a0801f30 	sb	zero,7984(a0)
a0803640:	a0801f30 	sb	zero,7984(a0)
a0803644:	a0801f30 	sb	zero,7984(a0)
a0803648:	a0801f30 	sb	zero,7984(a0)
a080364c:	a0801f30 	sb	zero,7984(a0)
a0803650:	a0801f30 	sb	zero,7984(a0)
a0803654:	a0801f30 	sb	zero,7984(a0)
a0803658:	a0801f30 	sb	zero,7984(a0)
a080365c:	a0801f30 	sb	zero,7984(a0)
a0803660:	a0801f30 	sb	zero,7984(a0)
a0803664:	a0801f30 	sb	zero,7984(a0)
a0803668:	a0801f30 	sb	zero,7984(a0)
a080366c:	a0801f30 	sb	zero,7984(a0)
a0803670:	a0801f30 	sb	zero,7984(a0)
a0803674:	a0801f30 	sb	zero,7984(a0)
a0803678:	a0801f30 	sb	zero,7984(a0)
a080367c:	a0801f30 	sb	zero,7984(a0)
a0803680:	a0801f30 	sb	zero,7984(a0)
a0803684:	a0801f30 	sb	zero,7984(a0)
a0803688:	a0801f30 	sb	zero,7984(a0)
a080368c:	a0801f30 	sb	zero,7984(a0)
a0803690:	a0801f30 	sb	zero,7984(a0)
a0803694:	a0801f30 	sb	zero,7984(a0)
a0803698:	a0801f30 	sb	zero,7984(a0)
a080369c:	a0801f30 	sb	zero,7984(a0)
a08036a0:	a0801f30 	sb	zero,7984(a0)
a08036a4:	a0801f30 	sb	zero,7984(a0)
a08036a8:	a0801f30 	sb	zero,7984(a0)
a08036ac:	a0801f30 	sb	zero,7984(a0)
a08036b0:	a0801f30 	sb	zero,7984(a0)
a08036b4:	a0801f30 	sb	zero,7984(a0)
a08036b8:	a0801f30 	sb	zero,7984(a0)
a08036bc:	a0801f30 	sb	zero,7984(a0)
a08036c0:	a0801f30 	sb	zero,7984(a0)
a08036c4:	a0801f30 	sb	zero,7984(a0)
a08036c8:	a0801f30 	sb	zero,7984(a0)
a08036cc:	a0801f30 	sb	zero,7984(a0)
a08036d0:	a0801f30 	sb	zero,7984(a0)
a08036d4:	a0801f30 	sb	zero,7984(a0)
a08036d8:	a0801f30 	sb	zero,7984(a0)
a08036dc:	a0801f30 	sb	zero,7984(a0)
a08036e0:	a0801f30 	sb	zero,7984(a0)
a08036e4:	a0801f30 	sb	zero,7984(a0)
a08036e8:	a0801f30 	sb	zero,7984(a0)
a08036ec:	a0801f30 	sb	zero,7984(a0)
a08036f0:	a0801f30 	sb	zero,7984(a0)
a08036f4:	a0801f30 	sb	zero,7984(a0)
a08036f8:	a0801f30 	sb	zero,7984(a0)
a08036fc:	a0801f30 	sb	zero,7984(a0)
a0803700:	a0801f30 	sb	zero,7984(a0)
a0803704:	a0801f30 	sb	zero,7984(a0)
a0803708:	a0801f30 	sb	zero,7984(a0)
a080370c:	a0801f30 	sb	zero,7984(a0)
a0803710:	a0801f30 	sb	zero,7984(a0)
a0803714:	a0801f30 	sb	zero,7984(a0)
a0803718:	a0801f30 	sb	zero,7984(a0)
a080371c:	a0801f30 	sb	zero,7984(a0)
a0803720:	a08020cc 	sb	zero,8396(a0)
a0803724:	a0801f30 	sb	zero,7984(a0)
a0803728:	a0801f30 	sb	zero,7984(a0)
a080372c:	a0801f30 	sb	zero,7984(a0)
a0803730:	a0801f30 	sb	zero,7984(a0)
a0803734:	a0801f30 	sb	zero,7984(a0)
a0803738:	a0801f30 	sb	zero,7984(a0)
a080373c:	a0801f30 	sb	zero,7984(a0)
a0803740:	a0801f30 	sb	zero,7984(a0)
a0803744:	a0801f30 	sb	zero,7984(a0)
a0803748:	a0801f30 	sb	zero,7984(a0)
a080374c:	a0802070 	sb	zero,8304(a0)
a0803750:	a0801f30 	sb	zero,7984(a0)
a0803754:	a0801f30 	sb	zero,7984(a0)
a0803758:	a0801f30 	sb	zero,7984(a0)
a080375c:	a0801f30 	sb	zero,7984(a0)
a0803760:	a0801f30 	sb	zero,7984(a0)
a0803764:	a0801fc8 	sb	zero,8136(a0)
a0803768:	a0801f30 	sb	zero,7984(a0)
a080376c:	a0801f30 	sb	zero,7984(a0)
a0803770:	a08021d0 	sb	zero,8656(a0)
a0803774:	a0801f30 	sb	zero,7984(a0)
a0803778:	a0801f30 	sb	zero,7984(a0)
a080377c:	a0801f30 	sb	zero,7984(a0)
a0803780:	a0801f30 	sb	zero,7984(a0)
a0803784:	a0801f30 	sb	zero,7984(a0)
a0803788:	a0801f30 	sb	zero,7984(a0)
a080378c:	a0801f30 	sb	zero,7984(a0)
a0803790:	a0801f30 	sb	zero,7984(a0)
a0803794:	a0801f30 	sb	zero,7984(a0)
a0803798:	a0802174 	sb	zero,8564(a0)
a080379c:	a0802128 	sb	zero,8488(a0)
a08037a0:	a08020cc 	sb	zero,8396(a0)
a08037a4:	a0801f30 	sb	zero,7984(a0)
a08037a8:	a0801f30 	sb	zero,7984(a0)
a08037ac:	a0801f30 	sb	zero,7984(a0)
a08037b0:	a0801f30 	sb	zero,7984(a0)
a08037b4:	a0801f30 	sb	zero,7984(a0)
a08037b8:	a0801f30 	sb	zero,7984(a0)
a08037bc:	a0801f30 	sb	zero,7984(a0)
a08037c0:	a0801f30 	sb	zero,7984(a0)
a08037c4:	a0801f30 	sb	zero,7984(a0)
a08037c8:	a0801f30 	sb	zero,7984(a0)
a08037cc:	a0802070 	sb	zero,8304(a0)
a08037d0:	a0801f30 	sb	zero,7984(a0)
a08037d4:	a0801f30 	sb	zero,7984(a0)
a08037d8:	a0801f30 	sb	zero,7984(a0)
a08037dc:	a0802024 	sb	zero,8228(a0)
a08037e0:	a0801f30 	sb	zero,7984(a0)
a08037e4:	a0801fc8 	sb	zero,8136(a0)
a08037e8:	a0801f30 	sb	zero,7984(a0)
a08037ec:	a0801f30 	sb	zero,7984(a0)
a08037f0:	a0801f74 	sb	zero,8052(a0)
	...
a0803800:	a03f03fc 	sb	ra,1020(at)
	...
Disassembly of section .rodata.str1.4:

a0803818 <.rodata.str1.4>:
a0803818:	65737341 	daddiu	s3,t3,29505
a080381c:	6f697472 	ldr	t1,29810(k1)
a0803820:	6166206e 	daddi	a2,t3,8302
a0803824:	72756c69 	0x72756c69
a0803828:	00203a65 	0x203a65
a080382c:	7478656e 	jalx	a1e195b8 <__bbs_end+0x1601710>
a0803830:	6174735f 	daddi	s4,t3,29535
a0803834:	3c206b63 	0x3c206b63
a0803838:	7830203d 	0x7830203d
a080383c:	30303161 	andi	s0,at,0x3161
a0803840:	30303030 	andi	s0,at,0x3030
a0803844:	00000000 	nop
a0803848:	656c6966 	daddiu	t4,t3,26982
a080384c:	0000203a 	dsrl	a0,zero,0x0
a0803850:	6e72656b 	ldr	s2,25963(s3)
a0803854:	632e6c65 	daddi	t6,t9,27749
a0803858:	00000000 	nop
a080385c:	656e696c 	daddiu	t6,t3,26988
a0803860:	0000203a 	dsrl	a0,zero,0x0
a0803864:	534c4146 	beql	k0,t4,a0813d80 <mail_box+0x48e8>
a0803868:	00000045 	0x45
a080386c:	61766e49 	daddi	s6,t3,28233
a0803870:	2064696c 	addi	a0,v1,26988
a0803874:	74737973 	jalx	a1cde5cc <__bbs_end+0x14c6724>
a0803878:	63206d65 	daddi	zero,t9,28005
a080387c:	006c6c61 	0x6c6c61
a0803880:	73726946 	0x73726946
a0803884:	00202074 	teq	at,zero,0x81
a0803888:	64616552 	daddiu	at,v1,25938
a080388c:	00000079 	0x79
a0803890:	636f6c42 	daddi	t7,k1,27714
a0803894:	0064656b 	0x64656b
a0803898:	74697845 	jalx	a1a5e114 <__bbs_end+0x124626c>
a080389c:	00206465 	0x206465
a08038a0:	65656c53 	daddiu	a1,t3,27731
a08038a4:	676e6970 	daddiu	t6,k1,26992
a08038a8:	00000000 	nop
a08038ac:	20522050 	addi	s2,v0,8272
a08038b0:	2043204f 	addi	v1,v0,8271
a08038b4:	20532045 	addi	s3,v0,8261
a08038b8:	20202053 	addi	zero,at,8275
a08038bc:	20542053 	addi	s4,v0,8275
a08038c0:	20542041 	addi	s4,v0,8257
a08038c4:	00532055 	0x532055
a08038c8:	09646950 	j	a591a540 <__bbs_end+0x5102698>
a08038cc:	65707954 	daddiu	s0,t3,31060
a08038d0:	69725009 	ldl	s2,20489(t3)
a08038d4:	7453096f 	jalx	a14c25bc <__bbs_end+0xcaa714>
a08038d8:	73757461 	0x73757461
a08038dc:	746e4509 	jalx	a1b91424 <__bbs_end+0x137957c>
a08038e0:	73656972 	0x73656972
a08038e4:	00000000 	nop
a08038e8:	25096425 	addiu	t1,t0,25637
a08038ec:	64250973 	daddiu	a1,at,2419
a08038f0:	09732509 	j	a5cc9424 <__bbs_end+0x54b157c>
a08038f4:	00006425 	0x6425
a08038f8:	65726854 	daddiu	s2,t3,26708
a08038fc:	00006461 	0x6461
a0803900:	636f7250 	daddi	t7,k1,29264
a0803904:	00737365 	0x737365
a0803908:	74756853 	jalx	a1d5a14c <__bbs_end+0x15422a4>
a080390c:	6e776f64 	ldr	s7,28516(s3)
a0803910:	00000000 	nop
a0803914:	74696e69 	jalx	a1a5b9a4 <__bbs_end+0x1243afc>
a0803918:	00000000 	nop
a080391c:	696e6170 	ldl	t6,24944(t3)
a0803920:	74612063 	jalx	a184818c <__bbs_end+0x10302e4>
a0803924:	3a732520 	xori	s3,s3,0x2520
a0803928:	203a6425 	addi	k0,at,25637
a080392c:	00000000 	nop
a0803930:	0000000a 	0xa
a0803934:	61736964 	daddi	s3,t3,26980
a0803938:	5f656c62 	0x5f656c62
a080393c:	6e756f63 	ldr	s5,28515(s3)
a0803940:	00000074 	teq	zero,zero,0x1
a0803944:	65686373 	daddiu	t0,t3,25459
a0803948:	656c7564 	daddiu	t4,t3,30052
a080394c:	00632e72 	tlt	v1,v1,0xb9
a0803950:	4c4c554e 	0x4c4c554e
a0803954:	203d2120 	addi	sp,at,8480
a0803958:	72727563 	0x72727563
a080395c:	5f746e65 	0x5f746e65
a0803960:	6e6e7572 	ldr	t6,30066(s3)
a0803964:	00676e69 	0x676e69
a0803968:	73696421 	0x73696421
a080396c:	656c6261 	daddiu	t4,t3,25185
a0803970:	756f635f 	jalx	a5bd8d7c <__bbs_end+0x53c0ed4>
a0803974:	0000746e 	0x746e
a0803978:	305b1b20 	andi	k1,v0,0x1b20
a080397c:	0000006d 	0x6d
a0803980:	00005b1b 	0x5b1b
a0803984:	0000003b 	dsra	zero,zero,0x0
a0803988:	00000048 	0x48
a080398c:	20202020 	addi	zero,at,8224
a0803990:	20202020 	addi	zero,at,8224
a0803994:	20202020 	addi	zero,at,8224
a0803998:	20202020 	addi	zero,at,8224
a080399c:	20202020 	addi	zero,at,8224
a08039a0:	20202020 	addi	zero,at,8224
a08039a4:	20202020 	addi	zero,at,8224
a08039a8:	20202020 	addi	zero,at,8224
a08039ac:	20202020 	addi	zero,at,8224
a08039b0:	20202020 	addi	zero,at,8224
a08039b4:	20202020 	addi	zero,at,8224
a08039b8:	20202020 	addi	zero,at,8224
a08039bc:	20202020 	addi	zero,at,8224
a08039c0:	20202020 	addi	zero,at,8224
a08039c4:	20202020 	addi	zero,at,8224
a08039c8:	20202020 	addi	zero,at,8224
a08039cc:	20202020 	addi	zero,at,8224
a08039d0:	20202020 	addi	zero,at,8224
a08039d4:	20202020 	addi	zero,at,8224
a08039d8:	00002020 	add	a0,zero,zero
a08039dc:	72702041 	0x72702041
a08039e0:	7365636f 	0x7365636f
a08039e4:	68742f73 	ldl	s4,12147(v1)
a08039e8:	64616572 	daddiu	at,v1,25970
a08039ec:	61687420 	daddi	t0,t3,29728
a08039f0:	61772074 	daddi	s7,t3,8308
a08039f4:	75722073 	jalx	a5c881cc <__bbs_end+0x5470324>
a08039f8:	6e696e6e 	ldr	t1,28270(s3)
a08039fc:	6e692067 	ldr	t1,8295(s3)
a0803a00:	65646973 	daddiu	a0,t3,26995
a0803a04:	65687420 	daddiu	t0,t3,29728
a0803a08:	72656b20 	0x72656b20
a0803a0c:	206c656e 	addi	t4,v1,25966
a0803a10:	6564616d 	daddiu	a0,t3,24941
a0803a14:	73206120 	0x73206120
a0803a18:	61637379 	daddi	v1,t3,29561
a0803a1c:	002e6c6c 	0x2e6c6c
a0803a20:	65746e69 	daddiu	s4,t3,28265
a0803a24:	70757272 	0x70757272
a0803a28:	00632e74 	teq	v1,v1,0xb9
a0803a2c:	6e6f7257 	ldr	t7,29271(s3)
a0803a30:	656e2067 	daddiu	t6,t3,8295
a0803a34:	63207473 	daddi	zero,t9,29811
a0803a38:	746e756f 	jalx	a1b9d5bc <__bbs_end+0x1385714>
a0803a3c:	20746120 	addi	s4,v1,24864
a0803a40:	00000042 	srl	zero,zero,0x1
a0803a44:	434f5250 	c0	0x14f5250
a0803a48:	00000031 	tgeu	zero,zero
a0803a4c:	434f5250 	c0	0x14f5250
a0803a50:	00000032 	tlt	zero,zero
Disassembly of section .data:

a0803a60 <_fdata>:
a0803a60:	00000001 	0x1

a0803a64 <next_stack.2>:
a0803a64:	a0f00000 	sb	s0,0(a3)

a0803a68 <status.0>:
a0803a68:	a0803880 	sb	zero,14464(a0)
a0803a6c:	a0803888 	sb	zero,14472(a0)
a0803a70:	a0803890 	sb	zero,14480(a0)
a0803a74:	a0803898 	sb	zero,14488(a0)
a0803a78:	a08038a0 	sb	zero,14496(a0)
a0803a7c:	00000000 	nop

a0803a80 <scratch>:
a0803a80:	00000000 	nop

a0803a84 <scratch2>:
a0803a84:	00000000 	nop

a0803a88 <return_value>:
a0803a88:	00000000 	nop

a0803a8c <disable_count>:
a0803a8c:	00000000 	nop

a0803a90 <files>:
a0803a90:	a0803914 	sb	zero,14612(a0)
a0803a94:	a0826000 	sb	v0,24576(a0)
a0803a98:	00000001 	0x1
a0803a9c:	a0803a44 	sb	zero,14916(a0)
a0803aa0:	a0820000 	sb	v0,0(a0)
a0803aa4:	00000001 	0x1
a0803aa8:	a0803a4c 	sb	zero,14924(a0)
a0803aac:	a0822000 	sb	v0,8192(a0)
a0803ab0:	00000001 	0x1
	...
Disassembly of section .ctors:

a0803b00 <__CTOR_LIST__>:
	...
Disassembly of section .dtors:

a0803b08 <__DTOR_LIST__>:
	...
Disassembly of section .sbss:

a0803b10 <time_elapsed>:
	...

a0803b18 <ready_queue>:
	...

a0803b20 <current_running>:
a0803b20:	00000000 	nop

a0803b24 <sleep_wait_queue>:
	...
Disassembly of section .bss:

a0803b30 <spawn_times>:
	...

a0803b38 <garbage_registers.1>:
	...

a0803ca0 <scheduler_times>:
	...

a0803cb0 <line_all>:
a0803cb0:	00000000 	nop

a0803cb4 <rand_val>:
	...

a0803cc0 <irq_times>:
	...

a0803cd0 <MessageBoxen>:
	...

a080c6d0 <syscall>:
	...

a080c718 <pcb>:
	...

a080f418 <interrupt_handlers>:
	...

a080f498 <mail_box>:
	...

a0817e98 <BoxLock>:
	...
Disassembly of section .debug_aranges:

00000000 <.debug_aranges>:
   0:	00000024 	and	zero,zero,zero
   4:	00000002 	srl	zero,zero,0x0
   8:	00040000 	sll	zero,a0,0x0
   c:	00000000 	nop
  10:	a0800420 	sb	zero,1056(a0)
  14:	0000072c 	0x72c
  18:	a0800200 	sb	zero,512(a0)
  1c:	00000218 	0x218
	...
  28:	0000001c 	dmult	zero,zero
  2c:	00000002 	srl	zero,zero,0x0
  30:	00040000 	sll	zero,a0,0x0
  34:	00000000 	nop
  38:	a0800b50 	sb	zero,2896(a0)
  3c:	00000a3c 	dsll32	at,zero,0x8
	...
  48:	0000001c 	dmult	zero,zero
  4c:	00000002 	srl	zero,zero,0x0
  50:	00040000 	sll	zero,a0,0x0
  54:	00000000 	nop
  58:	a0801590 	sb	zero,5520(a0)
  5c:	000003d0 	0x3d0
	...
  68:	0000001c 	dmult	zero,zero
  6c:	00000002 	srl	zero,zero,0x0
  70:	00040000 	sll	zero,a0,0x0
  74:	00000000 	nop
  78:	a0801960 	sb	zero,6496(a0)
  7c:	00000174 	teq	zero,zero,0x5
	...
  88:	0000001c 	dmult	zero,zero
  8c:	00000002 	srl	zero,zero,0x0
  90:	00040000 	sll	zero,a0,0x0
  94:	00000000 	nop
  98:	a0801ae0 	sb	zero,6880(a0)
  9c:	000007cc 	syscall	0x1f
	...
  a8:	0000001c 	dmult	zero,zero
  ac:	00000002 	srl	zero,zero,0x0
  b0:	00040000 	sll	zero,a0,0x0
  b4:	00000000 	nop
  b8:	a08022b0 	sb	zero,8880(a0)
  bc:	00000678 	dsll	zero,zero,0x19
	...
  c8:	0000001c 	dmult	zero,zero
  cc:	00000002 	srl	zero,zero,0x0
  d0:	00040000 	sll	zero,a0,0x0
  d4:	00000000 	nop
  d8:	a0802930 	sb	zero,10544(a0)
  dc:	00000060 	0x60
	...
  e8:	0000001c 	dmult	zero,zero
  ec:	00000002 	srl	zero,zero,0x0
  f0:	00040000 	sll	zero,a0,0x0
  f4:	00000000 	nop
  f8:	a0802990 	sb	zero,10640(a0)
  fc:	00000658 	0x658
	...
 108:	0000001c 	dmult	zero,zero
 10c:	00000002 	srl	zero,zero,0x0
 110:	00040000 	sll	zero,a0,0x0
 114:	00000000 	nop
 118:	a0802ff0 	sb	zero,12272(a0)
 11c:	00000130 	tge	zero,zero,0x4
	...
 128:	0000001c 	dmult	zero,zero
 12c:	00000002 	srl	zero,zero,0x0
 130:	00040000 	sll	zero,a0,0x0
 134:	00000000 	nop
 138:	a0803120 	sb	zero,12576(a0)
 13c:	00000320 	0x320
	...
 148:	0000001c 	dmult	zero,zero
 14c:	00000002 	srl	zero,zero,0x0
 150:	00040000 	sll	zero,a0,0x0
 154:	00000000 	nop
 158:	a0803440 	sb	zero,13376(a0)
 15c:	00000028 	0x28
	...
 168:	0000001c 	dmult	zero,zero
 16c:	00000002 	srl	zero,zero,0x0
 170:	00040000 	sll	zero,a0,0x0
 174:	00000000 	nop
 178:	a0803470 	sb	zero,13424(a0)
 17c:	00000118 	0x118
	...
 188:	0000001c 	dmult	zero,zero
 18c:	00000002 	srl	zero,zero,0x0
 190:	00040000 	sll	zero,a0,0x0
 194:	00000000 	nop
 198:	a0803590 	sb	zero,13712(a0)
 19c:	00000030 	tge	zero,zero
	...
 1a8:	0000001c 	dmult	zero,zero
 1ac:	00000002 	srl	zero,zero,0x0
 1b0:	00040000 	sll	zero,a0,0x0
 1b4:	00000000 	nop
 1b8:	a08035c0 	sb	zero,13760(a0)
 1bc:	00000024 	and	zero,zero,zero
	...
Disassembly of section .debug_pubnames:

00000000 <.debug_pubnames>:
   0:	0000009d 	0x9d
   4:	00000002 	srl	zero,zero,0x0
   8:	075b0000 	0x75b0000
   c:	039c0000 	0x39c0000
  10:	72700000 	0x72700000
  14:	5f746e69 	0x5f746e69
  18:	74617473 	jalx	185d1cc <NESTED_COUNT+0x185d08c>
  1c:	f5007375 	sdc1	$f0,29557(t0)
  20:	64000003 	daddiu	zero,zero,3
  24:	68735f6f 	ldl	s3,24431(v1)
  28:	6f647475 	ldr	a0,29813(k1)
  2c:	0c006e77 	jal	1b9dc <NESTED_COUNT+0x1b89c>
  30:	64000004 	daddiu	zero,zero,4
  34:	72775f6f 	0x72775f6f
  38:	5f657469 	0x5f657469
  3c:	69726573 	ldl	s2,25971(t3)
  40:	4d006c61 	bc3f	1b1c8 <NESTED_COUNT+0x1b088>
  44:	70000004 	0x70000004
  48:	746e6972 	jalx	1b9a5c8 <NESTED_COUNT+0x1b9a488>
  4c:	72616863 	0x72616863
  50:	04750063 	0x4750063
  54:	72700000 	0x72700000
  58:	5f746e69 	0x5f746e69
  5c:	72616863 	0x72616863
  60:	0005b600 	sll	s6,a1,0x18
  64:	74735f00 	jalx	1cd7c00 <NESTED_COUNT+0x1cd7ac0>
  68:	00747261 	0x747261
  6c:	000006db 	0x6db
  70:	63737973 	daddi	s3,k1,31091
  74:	006c6c61 	0x6c6c61
  78:	00000724 	0x724
  7c:	00626370 	tge	v1,v0,0x18d
  80:	00000736 	tne	zero,zero,0x1c
  84:	7478656e 	jalx	1e195b8 <NESTED_COUNT+0x1e19478>
  88:	6469705f 	daddiu	t1,v1,28767
  8c:	00074800 	sll	t1,a3,0x0
  90:	61707300 	daddi	s0,t3,29440
  94:	745f6e77 	jalx	17db9dc <NESTED_COUNT+0x17db89c>
  98:	73656d69 	0x73656d69
  9c:	00000000 	nop
  a0:	00001900 	sll	v1,zero,0x4
  a4:	00000200 	sll	zero,zero,0x8
  a8:	96000000 	lhu	zero,0(s0)
  ac:	1d000002 	bgtz	t0,b8 <USER+0x14>
  b0:	70000001 	0x70000001
  b4:	746e6972 	jalx	1b9a5c8 <NESTED_COUNT+0x1b9a488>
  b8:	00000066 	0x66
  bc:	00240000 	0x240000
  c0:	00020000 	sll	zero,v0,0x0
  c4:	00000000 	nop
  c8:	0000013f 	dsra32	zero,zero,0x4
  cc:	000000b1 	tgeu	zero,zero,0x2
  d0:	6e697270 	ldr	t1,29296(s3)
  d4:	e5006b74 	swc1	$f0,27508(t0)
  d8:	5f000000 	bgtzl	t8,dc <USER+0x38>
  dc:	696e6170 	ldl	t6,24944(t3)
  e0:	00000063 	0x63
  e4:	00460000 	0x460000
  e8:	00020000 	sll	zero,v0,0x0
  ec:	00000000 	nop
  f0:	0000038d 	break	0x0,0xe
  f4:	0000003d 	0x3d
  f8:	6e697250 	ldr	t1,29264(s3)
  fc:	6d754e74 	ldr	s5,20084(t3)
 100:	00016100 	sll	t4,at,0x4
 104:	69725000 	ldl	s2,20480(t3)
 108:	6843746e 	ldl	v1,29806(v0)
 10c:	be007261 	cache	0x0,29281(s0)
 110:	50000001 	beqzl	zero,118 <USER+0x74>
 114:	746e6972 	jalx	1b9a5c8 <NESTED_COUNT+0x1b9a488>
 118:	69727453 	ldl	s2,29779(t3)
 11c:	3c00676e 	lui	zero,0x676e
 120:	6c000002 	ldr	zero,2(zero)
 124:	72505f70 	0x72505f70
 128:	00746e69 	0x746e69
 12c:	00000000 	nop
 130:	00000148 	0x148
 134:	00000002 	srl	zero,zero,0x0
 138:	05150000 	0x5150000
 13c:	02a40000 	0x2a40000
 140:	68630000 	ldl	v1,0(v1)
 144:	5f6b6365 	0x5f6b6365
 148:	65656c73 	daddiu	a1,t3,27763
 14c:	676e6970 	daddiu	t6,k1,26992
 150:	0002d200 	sll	k0,v0,0x8
 154:	74757000 	jalx	1d5c000 <NESTED_COUNT+0x1d5bec0>
 158:	7275635f 	0x7275635f
 15c:	746e6572 	jalx	1b995c8 <NESTED_COUNT+0x1b99488>
 160:	6e75725f 	ldr	s5,29279(s3)
 164:	676e696e 	daddiu	t6,k1,26990
 168:	0002e800 	sll	sp,v0,0x0
 16c:	68637300 	ldl	v1,29440(v1)
 170:	6c756465 	ldr	s5,25701(v1)
 174:	fe007265 	sd	zero,29285(s0)
 178:	6c000002 	ldr	zero,2(zero)
 17c:	645f6574 	daddiu	ra,v0,25972
 180:	6c646165 	ldr	a0,24933(v1)
 184:	00656e69 	0x656e69
 188:	00000346 	0x346
 18c:	735f6f64 	0x735f6f64
 190:	7065656c 	0x7065656c
 194:	00036f00 	sll	t5,v1,0x1c
 198:	5f6f6400 	0x5f6f6400
 19c:	6c656979 	ldr	a1,27001(v1)
 1a0:	03860064 	0x3860064
 1a4:	6f640000 	ldr	a0,0(k1)
 1a8:	6978655f 	ldl	t8,25951(t3)
 1ac:	039d0074 	teq	gp,sp,0x1
 1b0:	6c620000 	ldr	v0,0(v1)
 1b4:	006b636f 	0x6b636f
 1b8:	000003c6 	0x3c6
 1bc:	6c626e75 	ldr	v0,28277(v1)
 1c0:	006b636f 	0x6b636f
 1c4:	000003ef 	0x3ef
 1c8:	675f6f64 	daddiu	ra,k0,28516
 1cc:	69707465 	ldl	s0,29797(t3)
 1d0:	041c0064 	0x41c0064
 1d4:	6f640000 	ldr	a0,0(k1)
 1d8:	7465675f 	jalx	1959d7c <NESTED_COUNT+0x1959c3c>
 1dc:	656d6974 	daddiu	t5,t3,26996
 1e0:	6164666f 	daddi	a0,t3,26223
 1e4:	04370079 	0x4370079
 1e8:	6f640000 	ldr	a0,0(k1)
 1ec:	7465675f 	jalx	1959d7c <NESTED_COUNT+0x1959c3c>
 1f0:	6f697270 	ldr	t1,29296(k1)
 1f4:	79746972 	0x79746972
 1f8:	00046400 	sll	t4,a0,0x10
 1fc:	5f6f6400 	0x5f6f6400
 200:	70746573 	0x70746573
 204:	726f6972 	0x726f6972
 208:	00797469 	0x797469
 20c:	0000048d 	break	0x0,0x12
 210:	5f746567 	0x5f746567
 214:	656d6974 	daddiu	t5,t3,26996
 218:	04b50072 	0x4b50072
 21c:	65720000 	daddiu	s2,t3,0
 220:	5f796461 	0x5f796461
 224:	75657571 	jalx	595d5c4 <NESTED_COUNT+0x595d484>
 228:	04c70065 	0x4c70065
 22c:	6c730000 	ldr	s3,0(v1)
 230:	5f706565 	0x5f706565
 234:	74696177 	jalx	1a585dc <NESTED_COUNT+0x1a5849c>
 238:	6575715f 	daddiu	s5,t3,29023
 23c:	d9006575 	ldc2	$0,25973(t0)
 240:	63000004 	daddi	zero,t8,4
 244:	65727275 	daddiu	s2,t3,29301
 248:	725f746e 	0x725f746e
 24c:	696e6e75 	ldl	t6,28277(t3)
 250:	eb00676e 	swc2	$0,26478(t8)
 254:	74000004 	jalx	10 <KERNEL+0x8>
 258:	5f656d69 	0x5f656d69
 25c:	70616c65 	0x70616c65
 260:	00646573 	tltu	v1,a0,0x195
 264:	00000502 	srl	zero,zero,0x14
 268:	65686373 	daddiu	t0,t3,25459
 26c:	656c7564 	daddiu	t4,t3,30052
 270:	69745f72 	ldl	s4,24434(t3)
 274:	0073656d 	0x73656d
 278:	00000000 	nop
 27c:	000000ea 	0xea
 280:	00000002 	srl	zero,zero,0x0
 284:	05910000 	bgezal	t4,288 <NESTED_COUNT+0x148>
 288:	03810000 	0x3810000
 28c:	6f6c0000 	ldr	t4,0(k1)
 290:	695f6b63 	ldl	ra,27491(t2)
 294:	0074696e 	0x74696e
 298:	000003ae 	0x3ae
 29c:	6b636f6c 	ldl	v1,28524(k1)
 2a0:	7163615f 	0x7163615f
 2a4:	65726975 	daddiu	s2,t3,26997
 2a8:	0003d900 	sll	k1,v1,0x4
 2ac:	636f6c00 	daddi	t7,k1,27648
 2b0:	65725f6b 	daddiu	s2,t3,24427
 2b4:	7361656c 	0x7361656c
 2b8:	04000065 	bltz	zero,450 <NESTED_COUNT+0x310>
 2bc:	6f630000 	ldr	v1,0(k1)
 2c0:	7469646e 	jalx	1a591b8 <NESTED_COUNT+0x1a59078>
 2c4:	5f6e6f69 	0x5f6e6f69
 2c8:	74696e69 	jalx	1a5b9a4 <NESTED_COUNT+0x1a5b864>
 2cc:	00042d00 	sll	a1,a0,0x14
 2d0:	6e6f6300 	ldr	t7,25344(s3)
 2d4:	69746964 	ldl	s4,26980(t3)
 2d8:	775f6e6f 	jalx	d7db9bc <NESTED_COUNT+0xd7db87c>
 2dc:	00746961 	0x746961
 2e0:	0000045f 	0x45f
 2e4:	646e6f63 	daddiu	t6,v1,28515
 2e8:	6f697469 	ldr	t1,29801(k1)
 2ec:	69735f6e 	ldl	s3,24430(t3)
 2f0:	6c616e67 	ldr	at,28263(v1)
 2f4:	00048600 	sll	s0,a0,0x18
 2f8:	6e6f6300 	ldr	t7,25344(s3)
 2fc:	69746964 	ldl	s4,26980(t3)
 300:	625f6e6f 	daddi	ra,s2,28271
 304:	64616f72 	daddiu	at,v1,28530
 308:	74736163 	jalx	1cd858c <NESTED_COUNT+0x1cd844c>
 30c:	0004ad00 	sll	s5,a0,0x14
 310:	6d657300 	ldr	a1,29440(t3)
 314:	6f687061 	ldr	t0,28769(k1)
 318:	695f6572 	ldl	ra,25970(t2)
 31c:	0074696e 	0x74696e
 320:	000004e7 	0x4e7
 324:	616d6573 	daddi	t5,t3,25971
 328:	726f6870 	0x726f6870
 32c:	70755f65 	0x70755f65
 330:	00050e00 	sll	at,a1,0x18
 334:	6d657300 	ldr	a1,29440(t3)
 338:	6f687061 	ldr	t0,28769(k1)
 33c:	645f6572 	daddiu	ra,v0,25970
 340:	006e776f 	0x6e776f
 344:	00000535 	0x535
 348:	72726162 	0x72726162
 34c:	5f726569 	0x5f726569
 350:	74696e69 	jalx	1a5b9a4 <NESTED_COUNT+0x1a5b864>
 354:	00056d00 	sll	t5,a1,0x14
 358:	72616200 	0x72616200
 35c:	72656972 	0x72656972
 360:	6961775f 	ldl	at,30559(t3)
 364:	00000074 	teq	zero,zero,0x1
 368:	010a0000 	0x10a0000
 36c:	00020000 	sll	zero,v0,0x0
 370:	00000000 	nop
 374:	000005e2 	0x5e2
 378:	0000006f 	0x6f
 37c:	6e697270 	ldr	t1,29296(s3)
 380:	72747374 	0x72747374
 384:	0000bb00 	sll	s7,zero,0xc
 388:	69727000 	ldl	s2,28672(t3)
 38c:	635f746e 	daddi	ra,k0,29806
 390:	726f6c6f 	0x726f6c6f
 394:	0000ef00 	sll	sp,zero,0x1c
 398:	6c656400 	ldr	a1,25600(v1)
 39c:	00737961 	0x737961
 3a0:	00000137 	0x137
 3a4:	6c727473 	ldr	s2,29811(v1)
 3a8:	6d006e65 	ldr	zero,28261(t0)
 3ac:	70000001 	0x70000001
 3b0:	746e6972 	jalx	1b9a5c8 <NESTED_COUNT+0x1b9a488>
 3b4:	7274735f 	0x7274735f
 3b8:	0001c600 	sll	t8,at,0x18
 3bc:	6f746100 	ldr	s4,24832(k1)
 3c0:	01fc0069 	0x1fc0069
 3c4:	65720000 	daddiu	s2,t3,0
 3c8:	73726576 	0x73726576
 3cc:	02440065 	0x2440065
 3d0:	74690000 	jalx	1a40000 <NESTED_COUNT+0x1a3fec0>
 3d4:	7865686f 	0x7865686f
 3d8:	00028c00 	sll	s1,v0,0x10
 3dc:	69727000 	ldl	s2,28672(t3)
 3e0:	685f746e 	ldl	ra,29806(v0)
 3e4:	0a007865 	j	801e194 <NESTED_COUNT+0x801e054>
 3e8:	69000003 	ldl	zero,3(t0)
 3ec:	00616f74 	teq	v1,at,0x1bd
 3f0:	00000347 	0x347
 3f4:	6e697270 	ldr	t1,29296(s3)
 3f8:	6e695f74 	ldr	t1,24436(s3)
 3fc:	03bb0074 	teq	sp,k1,0x1
 400:	72700000 	0x72700000
 404:	5f746e69 	0x5f746e69
 408:	61636f6c 	daddi	v1,t3,28524
 40c:	6e6f6974 	ldr	t7,26996(s3)
 410:	00041900 	sll	v1,a0,0x4
 414:	656c6300 	daddiu	t4,t3,25344
 418:	735f7261 	0x735f7261
 41c:	65657263 	daddiu	a1,t3,29283
 420:	0486006e 	0x486006e
 424:	61730000 	daddi	s3,t3,0
 428:	735f656d 	0x735f656d
 42c:	6e697274 	ldr	t1,29300(s3)
 430:	04be0067 	0x4be0067
 434:	63620000 	daddi	v0,k1,0
 438:	0079706f 	0x79706f
 43c:	0000050c 	syscall	0x14
 440:	72657a62 	0x72657a62
 444:	054d006f 	0x54d006f
 448:	72730000 	0x72730000
 44c:	00646e61 	0x646e61
 450:	00000576 	tne	zero,zero,0x15
 454:	646e6172 	daddiu	t6,v1,24946
 458:	6574735f 	daddiu	s4,t3,29535
 45c:	05a30070 	bgezl	t5,620 <NESTED_COUNT+0x4e0>
 460:	61720000 	daddi	s2,t3,0
 464:	be00646e 	cache	0x0,25710(s0)
 468:	6c000005 	ldr	zero,5(zero)
 46c:	5f656e69 	0x5f656e69
 470:	006c6c61 	0x6c6c61
 474:	00000000 	nop
 478:	0000005c 	0x5c
 47c:	00000002 	srl	zero,zero,0x0
 480:	02080000 	0x2080000
 484:	00ca0000 	0xca0000
 488:	75710000 	jalx	5c40000 <NESTED_COUNT+0x5c3fec0>
 48c:	5f657565 	0x5f657565
 490:	74696e69 	jalx	1a5b9a4 <NESTED_COUNT+0x1a5b864>
 494:	0000f300 	sll	s8,zero,0xc
 498:	71656400 	0x71656400
 49c:	65756575 	daddiu	s5,t3,25973
 4a0:	00012d00 	sll	a1,at,0x14
 4a4:	716e6500 	0x716e6500
 4a8:	65756575 	daddiu	s5,t3,25973
 4ac:	00016300 	sll	t4,at,0xc
 4b0:	5f736900 	0x5f736900
 4b4:	74706d65 	jalx	1c1b594 <NESTED_COUNT+0x1c1b454>
 4b8:	01900079 	0x1900079
 4bc:	65700000 	daddiu	s0,t3,0
 4c0:	bd006b65 	cache	0x0,27493(t0)
 4c4:	65000001 	daddiu	zero,t0,1
 4c8:	6575716e 	daddiu	s5,t3,29038
 4cc:	735f6575 	0x735f6575
 4d0:	0074726f 	0x74726f
 4d4:	00000000 	nop
 4d8:	00000081 	0x81
 4dc:	00000002 	srl	zero,zero,0x0
 4e0:	041d0000 	0x41d0000
 4e4:	02930000 	0x2930000
 4e8:	6e690000 	ldr	t1,0(s3)
 4ec:	695f7469 	ldl	ra,29801(t2)
 4f0:	7265746e 	0x7265746e
 4f4:	74707572 	jalx	1c1d5c8 <NESTED_COUNT+0x1c1d488>
 4f8:	02e90073 	tltu	s7,t1,0x1
 4fc:	5f630000 	0x5f630000
 500:	706d6973 	0x706d6973
 504:	685f656c 	ldl	ra,25964(v0)
 508:	6c646e61 	ldr	a0,28257(v1)
 50c:	1f007265 	bgtz	t8,1cea4 <NESTED_COUNT+0x1cd64>
 510:	74000003 	jalx	c <KERNEL+0x4>
 514:	72656d69 	0x72656d69
 518:	7172695f 	0x7172695f
 51c:	00034900 	sll	t1,v1,0x4
 520:	73797300 	0x73797300
 524:	5f6d6574 	0x5f6d6574
 528:	6c6c6163 	ldr	t4,24931(v1)
 52c:	6c65685f 	ldr	a1,26719(v1)
 530:	00726570 	tge	v1,s2,0x195
 534:	000003f8 	dsll	zero,zero,0xf
 538:	65746e69 	daddiu	s4,t3,28265
 53c:	70757272 	0x70757272
 540:	61685f74 	daddi	t0,t3,24436
 544:	656c646e 	daddiu	t4,t3,25710
 548:	0a007372 	j	801cdc8 <NESTED_COUNT+0x801cc88>
 54c:	69000004 	ldl	zero,4(t0)
 550:	745f7172 	jalx	17dc5c8 <NESTED_COUNT+0x17dc488>
 554:	73656d69 	0x73656d69
 558:	00000000 	nop
 55c:	00003500 	sll	a2,zero,0x14
 560:	00000200 	sll	zero,zero,0x8
 564:	8e000000 	lw	zero,0(s0)
 568:	f5000001 	sdc1	$f0,1(t0)
 56c:	72000000 	0x72000000
 570:	69646d61 	ldl	a0,28001(t3)
 574:	665f6b73 	daddiu	ra,s2,27507
 578:	00646e69 	0x646e69
 57c:	00000146 	0x146
 580:	646d6172 	daddiu	t5,v1,24946
 584:	5f6b7369 	0x5f6b7369
 588:	646e6966 	daddiu	t6,v1,26982
 58c:	6c69465f 	ldr	t1,18015(v1)
 590:	00000065 	0x65
 594:	008e0000 	0x8e0000
 598:	00020000 	sll	zero,v0,0x0
 59c:	00000000 	nop
 5a0:	00000542 	srl	zero,zero,0x15
 5a4:	000003d1 	0x3d1
 5a8:	74696e69 	jalx	1a5b9a4 <NESTED_COUNT+0x1a5b864>
 5ac:	6f626d5f 	ldr	v0,27999(k1)
 5b0:	03e80078 	0x3e80078
 5b4:	6f640000 	ldr	a0,0(k1)
 5b8:	6f626d5f 	ldr	v0,27999(k1)
 5bc:	706f5f78 	0x706f5f78
 5c0:	20006e65 	addi	zero,zero,28261
 5c4:	64000004 	daddiu	zero,zero,4
 5c8:	626d5f6f 	daddi	t5,s3,24431
 5cc:	635f786f 	daddi	ra,k0,30831
 5d0:	65736f6c 	daddiu	s3,t3,28524
 5d4:	00044900 	sll	t1,a0,0x4
 5d8:	5f6f6400 	0x5f6f6400
 5dc:	786f626d 	0x786f626d
 5e0:	5f73695f 	0x5f73695f
 5e4:	6c6c7566 	ldr	t4,30054(v1)
 5e8:	00047600 	sll	t6,a0,0x18
 5ec:	5f6f6400 	0x5f6f6400
 5f0:	786f626d 	0x786f626d
 5f4:	6e65735f 	ldr	a1,29535(s3)
 5f8:	04b90064 	0x4b90064
 5fc:	6f640000 	ldr	a0,0(k1)
 600:	6f626d5f 	ldr	v0,27999(k1)
 604:	65725f78 	daddiu	s2,t3,24440
 608:	0c007663 	jal	1d98c <NESTED_COUNT+0x1d84c>
 60c:	6d000005 	ldr	zero,5(t0)
 610:	5f6c6961 	0x5f6c6961
 614:	00786f62 	0x786f62
 618:	0000052f 	0x52f
 61c:	4c786f42 	0x4c786f42
 620:	006b636f 	0x6b636f
 624:	00000000 	nop
 628:	00000031 	tgeu	zero,zero
 62c:	00000002 	srl	zero,zero,0x0
 630:	01620000 	0x1620000
 634:	00f50000 	0xf50000
 638:	65670000 	daddiu	a3,t3,0
 63c:	756e5f74 	jalx	5b97dd0 <NESTED_COUNT+0x5b97c90>
 640:	69665f6d 	ldl	a2,24429(t3)
 644:	0073656c 	0x73656c
 648:	0000010f 	0x10f
 64c:	5f746567 	0x5f746567
 650:	5f68746e 	0x5f68746e
 654:	656c6966 	daddiu	t4,t3,26982
 658:	00000000 	nop
	...
Disassembly of section .pdr:

00000000 <.pdr>:
   0:	a0800420 	sb	zero,1056(a0)
   4:	80000000 	lb	zero,0(zero)
   8:	fffffff8 	sd	ra,-8(ra)
	...
  14:	00000018 	mult	zero,zero
  18:	0000001d 	dmultu	zero,zero
  1c:	0000001f 	ddivu	zero,zero,zero
  20:	a08004d4 	sb	zero,1236(a0)
  24:	80000000 	lb	zero,0(zero)
  28:	fffffff8 	sd	ra,-8(ra)
	...
  34:	00000018 	mult	zero,zero
  38:	0000001d 	dmultu	zero,zero
  3c:	0000001f 	ddivu	zero,zero,zero
  40:	a080059c 	sb	zero,1436(a0)
  44:	80000000 	lb	zero,0(zero)
  48:	fffffff8 	sd	ra,-8(ra)
	...
  54:	00000018 	mult	zero,zero
  58:	0000001d 	dmultu	zero,zero
  5c:	0000001f 	ddivu	zero,zero,zero
  60:	a0800620 	sb	zero,1568(a0)
  64:	803f0000 	lb	ra,0(at)
  68:	fffffff8 	sd	ra,-8(ra)
	...
  74:	00000040 	sll	zero,zero,0x1
  78:	0000001d 	dmultu	zero,zero
  7c:	0000001f 	ddivu	zero,zero,zero
  80:	a0800718 	sb	zero,1816(a0)
  84:	80000000 	lb	zero,0(zero)
  88:	fffffff8 	sd	ra,-8(ra)
	...
  94:	00000018 	mult	zero,zero
  98:	0000001d 	dmultu	zero,zero
  9c:	0000001f 	ddivu	zero,zero,zero
  a0:	a080079c 	sb	zero,1948(a0)
	...
  b8:	0000001d 	dmultu	zero,zero
  bc:	0000001f 	ddivu	zero,zero,zero
  c0:	a08007c0 	sb	zero,1984(a0)
	...
  d8:	0000001d 	dmultu	zero,zero
  dc:	0000001f 	ddivu	zero,zero,zero
  e0:	a08007cc 	sb	zero,1996(a0)
  e4:	80010000 	lb	at,0(zero)
  e8:	fffffffc 	sd	ra,-4(ra)
	...
  f4:	00000018 	mult	zero,zero
  f8:	0000001d 	dmultu	zero,zero
  fc:	0000001f 	ddivu	zero,zero,zero
 100:	a0800800 	sb	zero,2048(a0)
 104:	803f0000 	lb	ra,0(at)
 108:	fffffff8 	sd	ra,-8(ra)
	...
 114:	00000038 	dsll	zero,zero,0x0
 118:	0000001d 	dmultu	zero,zero
 11c:	0000001f 	ddivu	zero,zero,zero
 120:	a0800200 	sb	zero,512(a0)
 124:	80000000 	lb	zero,0(zero)
 128:	fffffff8 	sd	ra,-8(ra)
	...
 134:	00000018 	mult	zero,zero
 138:	0000001d 	dmultu	zero,zero
 13c:	0000001f 	ddivu	zero,zero,zero
 140:	a08009bc 	sb	zero,2492(a0)
 144:	80070000 	lb	a3,0(zero)
 148:	fffffffc 	sd	ra,-4(ra)
	...
 154:	00000020 	add	zero,zero,zero
 158:	0000001d 	dmultu	zero,zero
 15c:	0000001f 	ddivu	zero,zero,zero
 160:	a0800ab0 	sb	zero,2736(a0)
 164:	80010000 	lb	at,0(zero)
 168:	fffffffc 	sd	ra,-4(ra)
	...
 174:	00000018 	mult	zero,zero
 178:	0000001d 	dmultu	zero,zero
 17c:	0000001f 	ddivu	zero,zero,zero
 180:	a0800b50 	sb	zero,2896(a0)
	...
 198:	0000001d 	dmultu	zero,zero
 19c:	0000001f 	ddivu	zero,zero,zero
 1a0:	a0800d50 	sb	zero,3408(a0)
	...
 1b8:	0000001d 	dmultu	zero,zero
 1bc:	0000001f 	ddivu	zero,zero,zero
 1c0:	a0800d84 	sb	zero,3460(a0)
	...
 1d8:	0000001d 	dmultu	zero,zero
 1dc:	0000001f 	ddivu	zero,zero,zero
 1e0:	a0800d98 	sb	zero,3480(a0)
	...
 1f8:	0000001d 	dmultu	zero,zero
 1fc:	0000001d 	dmultu	zero,zero
 200:	a0800dd0 	sb	zero,3536(a0)
	...
 218:	0000001d 	dmultu	zero,zero
 21c:	0000001f 	ddivu	zero,zero,zero
 220:	a0800de8 	sb	zero,3560(a0)
	...
 238:	0000001d 	dmultu	zero,zero
 23c:	0000001d 	dmultu	zero,zero
 240:	a0800ff0 	sb	zero,4080(a0)
	...
 258:	0000001d 	dmultu	zero,zero
 25c:	0000001d 	dmultu	zero,zero
 260:	a08011d4 	sb	zero,4564(a0)
	...
 278:	0000001d 	dmultu	zero,zero
 27c:	0000001d 	dmultu	zero,zero
 280:	a0801430 	sb	zero,5168(a0)
	...
 298:	0000001d 	dmultu	zero,zero
 29c:	0000001f 	ddivu	zero,zero,zero
 2a0:	a080143c 	sb	zero,5180(a0)
	...
 2b8:	0000001d 	dmultu	zero,zero
 2bc:	0000001f 	ddivu	zero,zero,zero
 2c0:	a0801448 	sb	zero,5192(a0)
	...
 2d8:	0000001d 	dmultu	zero,zero
 2dc:	0000001f 	ddivu	zero,zero,zero
 2e0:	a0801488 	sb	zero,5256(a0)
	...
 2f8:	0000001d 	dmultu	zero,zero
 2fc:	0000001f 	ddivu	zero,zero,zero
 300:	a08014c4 	sb	zero,5316(a0)
	...
 318:	0000001d 	dmultu	zero,zero
 31c:	0000001f 	ddivu	zero,zero,zero
 320:	a0801504 	sb	zero,5380(a0)
	...
 338:	0000001d 	dmultu	zero,zero
 33c:	0000001f 	ddivu	zero,zero,zero
 340:	a0801544 	sb	zero,5444(a0)
	...
 358:	0000001d 	dmultu	zero,zero
 35c:	0000001f 	ddivu	zero,zero,zero
 360:	a0801584 	sb	zero,5508(a0)
	...
 378:	0000001d 	dmultu	zero,zero
 37c:	0000001f 	ddivu	zero,zero,zero
 380:	a0801590 	sb	zero,5520(a0)
 384:	80030000 	lb	v1,0(zero)
 388:	fffffff8 	sd	ra,-8(ra)
	...
 394:	00000020 	add	zero,zero,zero
 398:	0000001d 	dmultu	zero,zero
 39c:	0000001f 	ddivu	zero,zero,zero
 3a0:	a080167c 	sb	zero,5756(a0)
 3a4:	80070000 	lb	a3,0(zero)
 3a8:	fffffffc 	sd	ra,-4(ra)
	...
 3b4:	00000030 	tge	zero,zero
 3b8:	0000001d 	dmultu	zero,zero
 3bc:	0000001f 	ddivu	zero,zero,zero
 3c0:	a0801714 	sb	zero,5908(a0)
 3c4:	80ff0000 	lb	ra,0(a3)
 3c8:	fffffff8 	sd	ra,-8(ra)
	...
 3d4:	00000038 	dsll	zero,zero,0x0
 3d8:	0000001d 	dmultu	zero,zero
 3dc:	0000001f 	ddivu	zero,zero,zero
 3e0:	a0801960 	sb	zero,6496(a0)
 3e4:	801f0000 	lb	ra,0(zero)
 3e8:	fffffffc 	sd	ra,-4(ra)
	...
 3f4:	00000028 	0x28
 3f8:	0000001d 	dmultu	zero,zero
 3fc:	0000001f 	ddivu	zero,zero,zero
 400:	a0801a3c 	sb	zero,6716(a0)
 404:	80000000 	lb	zero,0(zero)
 408:	fffffff8 	sd	ra,-8(ra)
	...
 414:	00000018 	mult	zero,zero
 418:	0000001d 	dmultu	zero,zero
 41c:	0000001f 	ddivu	zero,zero,zero
 420:	a0801a78 	sb	zero,6776(a0)
 424:	80010000 	lb	at,0(zero)
 428:	fffffffc 	sd	ra,-4(ra)
	...
 434:	00000018 	mult	zero,zero
 438:	0000001d 	dmultu	zero,zero
 43c:	0000001f 	ddivu	zero,zero,zero
 440:	a0801ae0 	sb	zero,6880(a0)
	...
 458:	0000001d 	dmultu	zero,zero
 45c:	0000001f 	ddivu	zero,zero,zero
 460:	a0801c34 	sb	zero,7220(a0)
	...
 478:	0000001d 	dmultu	zero,zero
 47c:	0000001f 	ddivu	zero,zero,zero
 480:	a0801cb0 	sb	zero,7344(a0)
	...
 498:	0000001d 	dmultu	zero,zero
 49c:	0000001f 	ddivu	zero,zero,zero
 4a0:	a0801d98 	sb	zero,7576(a0)
 4a4:	800f0000 	lb	t7,0(zero)
 4a8:	fffffff8 	sd	ra,-8(ra)
	...
 4b4:	00000420 	0x420
 4b8:	0000001d 	dmultu	zero,zero
 4bc:	0000001f 	ddivu	zero,zero,zero
 4c0:	a08022b0 	sb	zero,8880(a0)
 4c4:	80030000 	lb	v1,0(zero)
 4c8:	fffffff8 	sd	ra,-8(ra)
	...
 4d4:	00000020 	add	zero,zero,zero
 4d8:	0000001d 	dmultu	zero,zero
 4dc:	0000001f 	ddivu	zero,zero,zero
 4e0:	a0802354 	sb	zero,9044(a0)
	...
 4f8:	0000001d 	dmultu	zero,zero
 4fc:	0000001f 	ddivu	zero,zero,zero
 500:	a0802370 	sb	zero,9072(a0)
 504:	80010000 	lb	at,0(zero)
 508:	fffffffc 	sd	ra,-4(ra)
	...
 514:	00000018 	mult	zero,zero
 518:	0000001d 	dmultu	zero,zero
 51c:	0000001f 	ddivu	zero,zero,zero
 520:	a08024ec 	sb	zero,9452(a0)
	...
 538:	0000001d 	dmultu	zero,zero
 53c:	0000001f 	ddivu	zero,zero,zero
 540:	a080252c 	sb	zero,9516(a0)
 544:	80010000 	lb	at,0(zero)
 548:	fffffffc 	sd	ra,-4(ra)
	...
 554:	00000018 	mult	zero,zero
 558:	0000001d 	dmultu	zero,zero
 55c:	0000001f 	ddivu	zero,zero,zero
 560:	a08026a4 	sb	zero,9892(a0)
 564:	80000000 	lb	zero,0(zero)
 568:	fffffff8 	sd	ra,-8(ra)
	...
 574:	00000018 	mult	zero,zero
 578:	0000001d 	dmultu	zero,zero
 57c:	0000001f 	ddivu	zero,zero,zero
 580:	a08026c8 	sb	zero,9928(a0)
 584:	80000000 	lb	zero,0(zero)
 588:	fffffff8 	sd	ra,-8(ra)
	...
 594:	00000018 	mult	zero,zero
 598:	0000001d 	dmultu	zero,zero
 59c:	0000001f 	ddivu	zero,zero,zero
 5a0:	a08026f4 	sb	zero,9972(a0)
 5a4:	80000000 	lb	zero,0(zero)
 5a8:	fffffff8 	sd	ra,-8(ra)
	...
 5b4:	00000018 	mult	zero,zero
 5b8:	0000001d 	dmultu	zero,zero
 5bc:	0000001f 	ddivu	zero,zero,zero
 5c0:	a08027ac 	sb	zero,10156(a0)
 5c4:	80000000 	lb	zero,0(zero)
 5c8:	fffffff8 	sd	ra,-8(ra)
	...
 5d4:	00000018 	mult	zero,zero
 5d8:	0000001d 	dmultu	zero,zero
 5dc:	0000001f 	ddivu	zero,zero,zero
 5e0:	a080285c 	sb	zero,10332(a0)
 5e4:	80010000 	lb	at,0(zero)
 5e8:	fffffffc 	sd	ra,-4(ra)
	...
 5f4:	00000018 	mult	zero,zero
 5f8:	0000001d 	dmultu	zero,zero
 5fc:	0000001f 	ddivu	zero,zero,zero
 600:	a0802890 	sb	zero,10384(a0)
	...
 618:	0000001d 	dmultu	zero,zero
 61c:	0000001f 	ddivu	zero,zero,zero
 620:	a08028a4 	sb	zero,10404(a0)
 624:	80010000 	lb	at,0(zero)
 628:	fffffffc 	sd	ra,-4(ra)
	...
 634:	00000018 	mult	zero,zero
 638:	0000001d 	dmultu	zero,zero
 63c:	0000001f 	ddivu	zero,zero,zero
 640:	a08028d8 	sb	zero,10456(a0)
 644:	80010000 	lb	at,0(zero)
 648:	fffffffc 	sd	ra,-4(ra)
	...
 654:	00000018 	mult	zero,zero
 658:	0000001d 	dmultu	zero,zero
 65c:	0000001f 	ddivu	zero,zero,zero
 660:	a0802920 	sb	zero,10528(a0)
	...
 678:	0000001d 	dmultu	zero,zero
 67c:	0000001f 	ddivu	zero,zero,zero
 680:	a0802930 	sb	zero,10544(a0)
	...
 698:	0000001d 	dmultu	zero,zero
 69c:	0000001f 	ddivu	zero,zero,zero
 6a0:	a0802938 	sb	zero,10552(a0)
	...
 6b8:	0000001d 	dmultu	zero,zero
 6bc:	0000001f 	ddivu	zero,zero,zero
 6c0:	a0802940 	sb	zero,10560(a0)
	...
 6d8:	0000001d 	dmultu	zero,zero
 6dc:	0000001f 	ddivu	zero,zero,zero
 6e0:	a0802948 	sb	zero,10568(a0)
	...
 6f8:	0000001d 	dmultu	zero,zero
 6fc:	0000001f 	ddivu	zero,zero,zero
 700:	a0802950 	sb	zero,10576(a0)
	...
 718:	0000001d 	dmultu	zero,zero
 71c:	0000001f 	ddivu	zero,zero,zero
 720:	a0802958 	sb	zero,10584(a0)
	...
 738:	0000001d 	dmultu	zero,zero
 73c:	0000001f 	ddivu	zero,zero,zero
 740:	a0802960 	sb	zero,10592(a0)
	...
 758:	0000001d 	dmultu	zero,zero
 75c:	0000001f 	ddivu	zero,zero,zero
 760:	a0802968 	sb	zero,10600(a0)
	...
 778:	0000001d 	dmultu	zero,zero
 77c:	0000001f 	ddivu	zero,zero,zero
 780:	a0802970 	sb	zero,10608(a0)
	...
 798:	0000001d 	dmultu	zero,zero
 79c:	0000001f 	ddivu	zero,zero,zero
 7a0:	a0802978 	sb	zero,10616(a0)
	...
 7b8:	0000001d 	dmultu	zero,zero
 7bc:	0000001f 	ddivu	zero,zero,zero
 7c0:	a0802980 	sb	zero,10624(a0)
	...
 7d8:	0000001d 	dmultu	zero,zero
 7dc:	0000001f 	ddivu	zero,zero,zero
 7e0:	a0802988 	sb	zero,10632(a0)
	...
 7f8:	0000001d 	dmultu	zero,zero
 7fc:	0000001f 	ddivu	zero,zero,zero
 800:	a0802990 	sb	zero,10640(a0)
	...
 818:	0000001d 	dmultu	zero,zero
 81c:	0000001f 	ddivu	zero,zero,zero
 820:	a08029d0 	sb	zero,10704(a0)
 824:	80010000 	lb	at,0(zero)
 828:	fffffffc 	sd	ra,-4(ra)
	...
 834:	00000018 	mult	zero,zero
 838:	0000001d 	dmultu	zero,zero
 83c:	0000001f 	ddivu	zero,zero,zero
 840:	a0802a08 	sb	zero,10760(a0)
	...
 858:	0000001d 	dmultu	zero,zero
 85c:	0000001f 	ddivu	zero,zero,zero
 860:	a0802a60 	sb	zero,10848(a0)
	...
 878:	0000001d 	dmultu	zero,zero
 87c:	0000001f 	ddivu	zero,zero,zero
 880:	a0802a84 	sb	zero,10884(a0)
 884:	801f0000 	lb	ra,0(zero)
 888:	fffffffc 	sd	ra,-4(ra)
	...
 894:	00000028 	0x28
 898:	0000001d 	dmultu	zero,zero
 89c:	0000001f 	ddivu	zero,zero,zero
 8a0:	a0802b04 	sb	zero,11012(a0)
	...
 8b8:	0000001d 	dmultu	zero,zero
 8bc:	0000001f 	ddivu	zero,zero,zero
 8c0:	a0802b5c 	sb	zero,11100(a0)
 8c4:	80010000 	lb	at,0(zero)
 8c8:	fffffffc 	sd	ra,-4(ra)
	...
 8d4:	00000018 	mult	zero,zero
 8d8:	0000001d 	dmultu	zero,zero
 8dc:	0000001f 	ddivu	zero,zero,zero
 8e0:	a0802bb4 	sb	zero,11188(a0)
	...
 8f8:	0000001d 	dmultu	zero,zero
 8fc:	0000001f 	ddivu	zero,zero,zero
 900:	a0802c0c 	sb	zero,11276(a0)
 904:	801f0000 	lb	ra,0(zero)
 908:	fffffffc 	sd	ra,-4(ra)
	...
 914:	00000038 	dsll	zero,zero,0x0
 918:	0000001d 	dmultu	zero,zero
 91c:	0000001f 	ddivu	zero,zero,zero
 920:	a0802ca4 	sb	zero,11428(a0)
	...
 938:	0000001d 	dmultu	zero,zero
 93c:	0000001f 	ddivu	zero,zero,zero
 940:	a0802cf8 	sb	zero,11512(a0)
 944:	801f0000 	lb	ra,0(zero)
 948:	fffffffc 	sd	ra,-4(ra)
	...
 954:	00000038 	dsll	zero,zero,0x0
 958:	0000001d 	dmultu	zero,zero
 95c:	0000001f 	ddivu	zero,zero,zero
 960:	a0802dc0 	sb	zero,11712(a0)
 964:	80030000 	lb	v1,0(zero)
 968:	fffffff8 	sd	ra,-8(ra)
	...
 974:	00000060 	0x60
 978:	0000001d 	dmultu	zero,zero
 97c:	0000001f 	ddivu	zero,zero,zero
 980:	a0802e3c 	sb	zero,11836(a0)
 984:	80070000 	lb	a3,0(zero)
 988:	fffffffc 	sd	ra,-4(ra)
	...
 994:	00000020 	add	zero,zero,zero
 998:	0000001d 	dmultu	zero,zero
 99c:	0000001f 	ddivu	zero,zero,zero
 9a0:	a0802ea0 	sb	zero,11936(a0)
	...
 9b8:	0000001d 	dmultu	zero,zero
 9bc:	0000001f 	ddivu	zero,zero,zero
 9c0:	a0802f04 	sb	zero,12036(a0)
	...
 9d8:	0000001d 	dmultu	zero,zero
 9dc:	0000001f 	ddivu	zero,zero,zero
 9e0:	a0802f6c 	sb	zero,12140(a0)
	...
 9f8:	0000001d 	dmultu	zero,zero
 9fc:	0000001f 	ddivu	zero,zero,zero
 a00:	a0802f90 	sb	zero,12176(a0)
	...
 a18:	0000001d 	dmultu	zero,zero
 a1c:	0000001f 	ddivu	zero,zero,zero
 a20:	a0802f9c 	sb	zero,12188(a0)
	...
 a38:	0000001d 	dmultu	zero,zero
 a3c:	0000001f 	ddivu	zero,zero,zero
 a40:	a0802fb8 	sb	zero,12216(a0)
 a44:	80010000 	lb	at,0(zero)
 a48:	fffffffc 	sd	ra,-4(ra)
	...
 a54:	00000018 	mult	zero,zero
 a58:	0000001d 	dmultu	zero,zero
 a5c:	0000001f 	ddivu	zero,zero,zero
 a60:	a0802ff0 	sb	zero,12272(a0)
	...
 a78:	0000001d 	dmultu	zero,zero
 a7c:	0000001f 	ddivu	zero,zero,zero
 a80:	a0802ffc 	sb	zero,12284(a0)
	...
 a98:	0000001d 	dmultu	zero,zero
 a9c:	0000001f 	ddivu	zero,zero,zero
 aa0:	a080302c 	sb	zero,12332(a0)
	...
 ab8:	0000001d 	dmultu	zero,zero
 abc:	0000001f 	ddivu	zero,zero,zero
 ac0:	a0803048 	sb	zero,12360(a0)
	...
 ad8:	0000001d 	dmultu	zero,zero
 adc:	0000001f 	ddivu	zero,zero,zero
 ae0:	a0803058 	sb	zero,12376(a0)
	...
 af8:	0000001d 	dmultu	zero,zero
 afc:	0000001f 	ddivu	zero,zero,zero
 b00:	a0803070 	sb	zero,12400(a0)
 b04:	800f0000 	lb	t7,0(zero)
 b08:	fffffff8 	sd	ra,-8(ra)
	...
 b14:	00000028 	0x28
 b18:	0000001d 	dmultu	zero,zero
 b1c:	0000001f 	ddivu	zero,zero,zero
 b20:	a0803120 	sb	zero,12576(a0)
 b24:	80030000 	lb	v1,0(zero)
 b28:	fffffff8 	sd	ra,-8(ra)
	...
 b34:	00000020 	add	zero,zero,zero
 b38:	0000001d 	dmultu	zero,zero
 b3c:	0000001f 	ddivu	zero,zero,zero
 b40:	a08031f8 	sb	zero,12792(a0)
	...
 b58:	0000001d 	dmultu	zero,zero
 b5c:	0000001f 	ddivu	zero,zero,zero
 b60:	a0803200 	sb	zero,12800(a0)
 b64:	80000000 	lb	zero,0(zero)
 b68:	fffffff8 	sd	ra,-8(ra)
	...
 b74:	00000018 	mult	zero,zero
 b78:	0000001d 	dmultu	zero,zero
 b7c:	0000001f 	ddivu	zero,zero,zero
 b80:	a0803270 	sb	zero,12912(a0)
 b84:	801f0000 	lb	ra,0(zero)
 b88:	fffffffc 	sd	ra,-4(ra)
	...
 b94:	00000028 	0x28
 b98:	0000001d 	dmultu	zero,zero
 b9c:	0000001f 	ddivu	zero,zero,zero
 ba0:	a0803440 	sb	zero,13376(a0)
	...
 bb8:	0000001d 	dmultu	zero,zero
 bbc:	0000001f 	ddivu	zero,zero,zero
 bc0:	a0803470 	sb	zero,13424(a0)
 bc4:	80070000 	lb	a3,0(zero)
 bc8:	fffffffc 	sd	ra,-4(ra)
	...
 bd4:	00000020 	add	zero,zero,zero
 bd8:	0000001d 	dmultu	zero,zero
 bdc:	0000001f 	ddivu	zero,zero,zero
 be0:	a08034fc 	sb	zero,13564(a0)
 be4:	80070000 	lb	a3,0(zero)
 be8:	fffffffc 	sd	ra,-4(ra)
	...
 bf4:	00000020 	add	zero,zero,zero
 bf8:	0000001d 	dmultu	zero,zero
 bfc:	0000001f 	ddivu	zero,zero,zero
 c00:	a0803590 	sb	zero,13712(a0)
	...
 c18:	0000001d 	dmultu	zero,zero
 c1c:	0000001f 	ddivu	zero,zero,zero
 c20:	a0803598 	sb	zero,13720(a0)
	...
 c38:	0000001d 	dmultu	zero,zero
 c3c:	0000001f 	ddivu	zero,zero,zero
 c40:	a08035a0 	sb	zero,13728(a0)
	...
 c58:	0000001d 	dmultu	zero,zero
 c5c:	0000001f 	ddivu	zero,zero,zero
 c60:	a08035a8 	sb	zero,13736(a0)
	...
 c78:	0000001d 	dmultu	zero,zero
 c7c:	0000001f 	ddivu	zero,zero,zero
 c80:	a08035b0 	sb	zero,13744(a0)
	...
 c98:	0000001d 	dmultu	zero,zero
 c9c:	0000001f 	ddivu	zero,zero,zero
 ca0:	a08035b8 	sb	zero,13752(a0)
	...
 cb8:	0000001d 	dmultu	zero,zero
 cbc:	0000001f 	ddivu	zero,zero,zero
 cc0:	a08035c0 	sb	zero,13760(a0)
	...
 cd8:	0000001d 	dmultu	zero,zero
 cdc:	0000001f 	ddivu	zero,zero,zero
 ce0:	a08035c8 	sb	zero,13768(a0)
	...
 cf8:	0000001d 	dmultu	zero,zero
 cfc:	0000001f 	ddivu	zero,zero,zero
Disassembly of section .debug_abbrev:

00000000 <.debug_abbrev>:
   0:	10011101 	beq	zero,at,4408 <NESTED_COUNT+0x42c8>
   4:	130e2506 	beq	t8,t6,9420 <NESTED_COUNT+0x92e0>
   8:	1b0e030b 	0x1b0e030b
   c:	0200000e 	0x200000e
  10:	0e030024 	jal	80c0090 <NESTED_COUNT+0x80bff50>
  14:	0b3e0b0b 	j	cf82c2c <NESTED_COUNT+0xcf82aec>
  18:	16030000 	bne	s0,v1,1c <KERNEL+0x14>
  1c:	3a0e0300 	xori	t6,s0,0x300
  20:	490b3b0b 	0x490b3b0b
  24:	04000013 	bltz	zero,74 <STACK>
  28:	08030024 	j	c0090 <NESTED_COUNT+0xbff50>
  2c:	0b3e0b0b 	j	cf82c2c <NESTED_COUNT+0xcf82aec>
  30:	13050000 	beq	t8,a1,34 <KERNEL+0x2c>
  34:	03130101 	0x3130101
  38:	3a0b0b0e 	xori	t3,s0,0xb0e
  3c:	000b3b0b 	0xb3b0b
  40:	000d0600 	sll	zero,t5,0x18
  44:	0b3a0e03 	j	ce8380c <NESTED_COUNT+0xce836cc>
  48:	13490b3b 	beq	k0,t1,2d38 <NESTED_COUNT+0x2bf8>
  4c:	00000a38 	dsll	at,zero,0x8
  50:	0b000f07 	j	c003c1c <NESTED_COUNT+0xc003adc>
  54:	0013490b 	0x13490b
  58:	01130800 	0x1130800
  5c:	08031301 	j	c4c04 <NESTED_COUNT+0xc4ac4>
  60:	0b3a050b 	j	ce8142c <NESTED_COUNT+0xce812ec>
  64:	00000b3b 	dsra	at,zero,0xc
  68:	03000d09 	0x3000d09
  6c:	3b0b3a08 	xori	t3,t8,0x3a08
  70:	3813490b 	xori	s3,zero,0x490b
  74:	0a00000a 	j	8000028 <NESTED_COUNT+0x7fffee8>
  78:	13010104 	beq	t8,at,48c <NESTED_COUNT+0x34c>
  7c:	0b3a0b0b 	j	ce82c2c <NESTED_COUNT+0xce82aec>
  80:	00000b3b 	dsra	at,zero,0xc
  84:	0300280b 	0x300280b
  88:	000d1c0e 	0xd1c0e
  8c:	01010c00 	0x1010c00
  90:	13491301 	beq	k0,t1,4c98 <NESTED_COUNT+0x4b58>
  94:	210d0000 	addi	t5,t0,0
  98:	2f134900 	sltiu	s3,t8,18688
  9c:	0e00000b 	jal	800002c <NESTED_COUNT+0x7fffeec>
  a0:	0b0b000f 	j	c2c003c <NESTED_COUNT+0xc2bfefc>
  a4:	150f0000 	bne	t0,t7,a8 <USER+0x4>
  a8:	000c2700 	sll	a0,t4,0x1c
  ac:	01131000 	0x1131000
  b0:	0b0b1301 	j	c2c4c04 <NESTED_COUNT+0xc2c4ac4>
  b4:	0b3b0b3a 	j	cec2ce8 <NESTED_COUNT+0xcec2ba8>
  b8:	26110000 	addiu	s1,s0,0
  bc:	00134900 	sll	t1,s3,0x4
  c0:	012e1200 	0x12e1200
  c4:	0e031301 	jal	80c4c04 <NESTED_COUNT+0x80c4ac4>
  c8:	0b3b0b3a 	j	cec2ce8 <NESTED_COUNT+0xcec2ba8>
  cc:	13490c27 	beq	k0,t1,316c <NESTED_COUNT+0x302c>
  d0:	01120111 	0x1120111
  d4:	40064081 	0x40064081
  d8:	1300000a 	beqz	t8,104 <USER+0x60>
  dc:	0e030034 	jal	80c00d0 <NESTED_COUNT+0x80bff90>
  e0:	0b3b0b3a 	j	cec2ce8 <NESTED_COUNT+0xcec2ba8>
  e4:	0a021349 	j	8084d24 <NESTED_COUNT+0x8084be4>
  e8:	2e140000 	sltiu	s4,s0,0
  ec:	03130101 	0x3130101
  f0:	3b0b3a0e 	xori	t3,t8,0x3a0e
  f4:	110c270b 	beq	t0,t4,9d24 <NESTED_COUNT+0x9be4>
  f8:	81011201 	lb	at,4609(t0)
  fc:	0a400640 	j	9001900 <NESTED_COUNT+0x90017c0>
 100:	2e150000 	sltiu	s5,s0,0
 104:	3a0e0300 	xori	t6,s0,0x300
 108:	270b3b0b 	addiu	t3,t8,15115
 10c:	1113490c 	beq	t0,s3,12540 <NESTED_COUNT+0x12400>
 110:	81011201 	lb	at,4609(t0)
 114:	0a400640 	j	9001900 <NESTED_COUNT+0x90017c0>
 118:	2e160000 	sltiu	s6,s0,0
 11c:	3f130101 	0x3f130101
 120:	3a0e030c 	xori	t6,s0,0x30c
 124:	270b3b0b 	addiu	t3,t8,15115
 128:	1201110c 	beq	s0,at,455c <NESTED_COUNT+0x441c>
 12c:	06408101 	bltz	s2,fffe0534 <__bbs_end+0x5f7c868c>
 130:	00000a40 	sll	at,zero,0x9
 134:	03003417 	0x3003417
 138:	3b0b3a08 	xori	t3,t8,0x3a08
 13c:	0213490b 	0x213490b
 140:	1800000a 	blez	zero,16c <NESTED_COUNT+0x2c>
 144:	0e030034 	jal	80c00d0 <NESTED_COUNT+0x80bff90>
 148:	0b3b0b3a 	j	cec2ce8 <NESTED_COUNT+0xcec2ba8>
 14c:	00001349 	0x1349
 150:	3f002e19 	0x3f002e19
 154:	3a0e030c 	xori	t6,s0,0x30c
 158:	270b3b0b 	addiu	t3,t8,15115
 15c:	1201110c 	beq	s0,at,4590 <NESTED_COUNT+0x4450>
 160:	06408101 	bltz	s2,fffe0568 <__bbs_end+0x5f7c86c0>
 164:	00000a40 	sll	at,zero,0x9
 168:	0300051a 	0x300051a
 16c:	3b0b3a0e 	xori	t3,t8,0x3a0e
 170:	0213490b 	0x213490b
 174:	1b00000a 	blez	t8,1a0 <NESTED_COUNT+0x60>
 178:	08030005 	j	c0014 <NESTED_COUNT+0xbfed4>
 17c:	0b3b0b3a 	j	cec2ce8 <NESTED_COUNT+0xcec2ba8>
 180:	0a021349 	j	8084d24 <NESTED_COUNT+0x8084be4>
 184:	2e1c0000 	sltiu	gp,s0,0
 188:	3f130101 	0x3f130101
 18c:	3a0e030c 	xori	t6,s0,0x30c
 190:	270b3b0b 	addiu	t3,t8,15115
 194:	1113490c 	beq	t0,s3,125c8 <NESTED_COUNT+0x12488>
 198:	81011201 	lb	at,4609(t0)
 19c:	0a400640 	j	9001900 <NESTED_COUNT+0x90017c0>
 1a0:	2e1d0000 	sltiu	sp,s0,0
 1a4:	030c3f01 	0x30c3f01
 1a8:	3b0b3a0e 	xori	t3,t8,0x3a0e
 1ac:	3c13490b 	lui	s3,0x490b
 1b0:	1e00000c 	bgtz	s0,1e4 <NESTED_COUNT+0xa4>
 1b4:	00000018 	mult	zero,zero
 1b8:	0300341f 	0x300341f
 1bc:	3b0b3a08 	xori	t3,t8,0x3a08
 1c0:	0013490b 	0x13490b
 1c4:	012e2000 	0x12e2000
 1c8:	0c3f1301 	jal	fc4c04 <NESTED_COUNT+0xfc4ac4>
 1cc:	0b3a0e03 	j	ce8380c <NESTED_COUNT+0xce836cc>
 1d0:	13490b3b 	beq	k0,t1,2ec0 <NESTED_COUNT+0x2d80>
 1d4:	00000c3c 	dsll32	at,zero,0x10
 1d8:	31011d21 	andi	at,t0,0x1d21
 1dc:	12011113 	beq	s0,at,462c <NESTED_COUNT+0x44ec>
 1e0:	22000001 	addi	zero,s0,1
 1e4:	13310005 	beq	t9,s1,1fc <NESTED_COUNT+0xbc>
 1e8:	00000a02 	srl	at,zero,0x8
 1ec:	31000523 	andi	zero,t0,0x523
 1f0:	24000013 	li	zero,19
 1f4:	1301012e 	beq	t8,at,6b0 <NESTED_COUNT+0x570>
 1f8:	0b3a0e03 	j	ce8380c <NESTED_COUNT+0xce836cc>
 1fc:	0c270b3b 	jal	9c2cec <NESTED_COUNT+0x9c2bac>
 200:	00000b20 	0xb20
 204:	03000525 	0x3000525
 208:	3b0b3a08 	xori	t3,t8,0x3a08
 20c:	0013490b 	0x13490b
 210:	00342600 	0x342600
 214:	0a021331 	j	8084cc4 <NESTED_COUNT+0x8084b84>
 218:	0b270000 	j	c9c0000 <NESTED_COUNT+0xc9bfec0>
 21c:	12011101 	beq	s0,at,4624 <NESTED_COUNT+0x44e4>
 220:	28000001 	slti	zero,zero,1
 224:	1301012e 	beq	t8,at,6e0 <NESTED_COUNT+0x5a0>
 228:	0b3a0e03 	j	ce8380c <NESTED_COUNT+0xce836cc>
 22c:	0c27053b 	jal	9c14ec <NESTED_COUNT+0x9c13ac>
 230:	01111349 	0x1111349
 234:	40810112 	0x40810112
 238:	000a4006 	srlv	t0,t2,zero
 23c:	00052900 	sll	a1,a1,0x4
 240:	0b3a0803 	j	ce8200c <NESTED_COUNT+0xce81ecc>
 244:	1349053b 	beq	k0,t1,1734 <NESTED_COUNT+0x15f4>
 248:	00000a02 	srl	at,zero,0x8
 24c:	0300342a 	0x300342a
 250:	3b0b3a08 	xori	t3,t8,0x3a08
 254:	02134905 	0x2134905
 258:	2b00000a 	slti	zero,t8,10
 25c:	08030034 	j	c00d0 <NESTED_COUNT+0xbff90>
 260:	053b0b3a 	0x53b0b3a
 264:	00001349 	0x1349
 268:	0101152c 	0x101152c
 26c:	00134913 	0x134913
 270:	00342d00 	0x342d00
 274:	0b3a0e03 	j	ce8380c <NESTED_COUNT+0xce836cc>
 278:	13490b3b 	beq	k0,t1,2f68 <NESTED_COUNT+0x2e28>
 27c:	0a020c3f 	j	80830fc <NESTED_COUNT+0x8082fbc>
 280:	342e0000 	ori	t6,at,0x0
 284:	3a0e0300 	xori	t6,s0,0x300
 288:	490b3b0b 	0x490b3b0b
 28c:	3c0c3f13 	lui	t4,0x3f13
 290:	2f00000c 	sltiu	zero,t8,12
 294:	08030034 	j	c00d0 <NESTED_COUNT+0xbff90>
 298:	0b3b0b3a 	j	cec2ce8 <NESTED_COUNT+0xcec2ba8>
 29c:	0c3f1349 	jal	fc4d24 <NESTED_COUNT+0xfc4be4>
 2a0:	00000a02 	srl	at,zero,0x8
	...
Disassembly of section .debug_info:

00000000 <.debug_info>:
   0:	00000757 	0x757
   4:	00000002 	srl	zero,zero,0x0
   8:	01040000 	0x1040000
   c:	00000000 	nop
  10:	00000118 	0x118
  14:	00004201 	0x4201
  18:	00021b00 	sll	v1,v0,0xc
  1c:	015e0200 	0x15e0200
  20:	06010000 	bgez	s0,24 <KERNEL+0x1c>
  24:	00005402 	srl	t2,zero,0x10
  28:	02050200 	0x2050200
  2c:	0000007c 	dsll32	zero,zero,0x1
  30:	77020504 	jalx	c081410 <NESTED_COUNT+0xc0812d0>
  34:	08000000 	j	0 <KERNEL-0x8>
  38:	015c0205 	0x15c0205
  3c:	08010000 	j	40000 <NESTED_COUNT+0x3fec0>
  40:	0001c502 	srl	t8,at,0x14
  44:	03070200 	0x3070200
  48:	00000197 	0x197
  4c:	00524402 	0x524402
  50:	85020000 	lh	v0,0(t0)
  54:	04000001 	bltz	zero,5c <KERNEL+0x54>
  58:	004b0307 	0x4b0307
  5c:	45020000 	bc1fl	60 <KERNEL+0x58>
  60:	00000064 	0x64
  64:	00018002 	srl	s0,at,0x0
  68:	03070800 	0x3070800
  6c:	0000026e 	0x26e
  70:	00764702 	0x764702
  74:	69040000 	ldl	a0,0(t0)
  78:	0400746e 	bltz	zero,1d234 <NESTED_COUNT+0x1d0f4>
  7c:	00a60505 	0xa60505
  80:	01270000 	0x1270000
  84:	06080000 	tgei	s0,0
  88:	01730608 	0x1730608
  8c:	09060000 	j	4180000 <NESTED_COUNT+0x417fec0>
  90:	000000a6 	0xa6
  94:	06001002 	bltz	s0,40a0 <NESTED_COUNT+0x3f60>
  98:	000002db 	0x2db
  9c:	00a60906 	0xa60906
  a0:	10020000 	beq	zero,v0,a4 <USER>
  a4:	04070004 	0x4070004
  a8:	0000007d 	0x7d
  ac:	0001a003 	sra	s4,at,0x0
  b0:	7d0a0600 	0x7d0a0600
  b4:	08000000 	j	0 <KERNEL-0x8>
  b8:	00000177 	0x177
  bc:	00626370 	tge	v1,v0,0x18d
  c0:	12050168 	beq	s0,a1,664 <NESTED_COUNT+0x524>
  c4:	00012706 	0x12706
  c8:	ac3a0400 	sw	k0,1024(at)
  cc:	02000000 	0x2000000
  d0:	57060010 	bnel	t8,a2,114 <USER+0x70>
  d4:	04000002 	bltz	zero,e0 <USER+0x3c>
  d8:	00029c3b 	dsra	s3,v0,0x10
  dc:	08100200 	j	400800 <NESTED_COUNT+0x4006c0>
  e0:	00001006 	srlv	v0,zero,zero
  e4:	9c3c0400 	lwu	gp,1024(at)
  e8:	03000002 	0x3000002
  ec:	0601a410 	bgez	s0,fffe9130 <__bbs_end+0x5f7d1288>
  f0:	00000097 	0x97
  f4:	00763e04 	0x763e04
  f8:	10030000 	beq	zero,v1,fc <USER+0x58>
  fc:	d80602c0 	ldc2	$6,704(zero)
 100:	04000001 	bltz	zero,108 <USER+0x64>
 104:	00004740 	sll	t0,zero,0x1d
 108:	c4100300 	lwc1	$f16,768(zero)
 10c:	69700902 	ldl	s0,2306(t3)
 110:	41040064 	0x41040064
 114:	0000006b 	0x6b
 118:	02c81003 	0x2c81003
 11c:	0002d106 	0x2d106
 120:	93420400 	lbu	v0,1024(k0)
 124:	03000001 	0x3000001
 128:	0602cc10 	bltzl	s0,ffff316c <__bbs_end+0x5f7db2c4>
 12c:	000007cf 	0x7cf
 130:	01d04304 	0x1d04304
 134:	10030000 	beq	zero,v1,138 <USER+0x94>
 138:	fa0602d0 	sdc2	$6,720(s0)
 13c:	04000001 	bltz	zero,144 <NESTED_COUNT+0x4>
 140:	00004744 	0x4744
 144:	d4100300 	ldc1	$f16,768(zero)
 148:	04e70602 	0x4e70602
 14c:	45040000 	0x45040000
 150:	00000059 	0x59
 154:	02d81003 	0x2d81003
 158:	00048606 	0x48606
 15c:	9e470400 	lwu	a3,1024(s2)
 160:	03000001 	0x3000001
 164:	0602e010 	bltzl	s0,ffff81a8 <__bbs_end+0x5f7e0300>
 168:	0000014e 	0x14e
 16c:	02a74804 	sllv	t1,a3,s5
 170:	10030000 	beq	zero,v1,174 <NESTED_COUNT+0x34>
 174:	020002e4 	0x20002e4
 178:	0000018a 	0x18a
 17c:	930a0704 	lbu	t2,1796(t8)
 180:	04000001 	bltz	zero,188 <NESTED_COUNT+0x48>
 184:	e40b0d04 	swc1	$f11,3332(zero)
 188:	00000001 	0x1
 18c:	0002c40b 	0x2c40b
 190:	03000100 	0x3000100
 194:	00000206 	0x206
 198:	017e1004 	sllv	v0,s8,t3
 19c:	18030000 	0x18030000
 1a0:	04000000 	bltz	zero,1a4 <NESTED_COUNT+0x64>
 1a4:	00007612 	0x7612
 1a8:	01d00a00 	0x1d00a00
 1ac:	04040000 	0x4040000
 1b0:	00370b14 	0x370b14
 1b4:	0b000000 	j	c000000 <NESTED_COUNT+0xbfffec0>
 1b8:	00000274 	teq	zero,zero,0x9
 1bc:	00f40b01 	0xf40b01
 1c0:	0b020000 	j	c080000 <NESTED_COUNT+0xc07fec0>
 1c4:	000001be 	dsrl32	zero,zero,0x6
 1c8:	002e0b03 	0x2e0b03
 1cc:	00040000 	sll	zero,a0,0x0
 1d0:	00016a03 	sra	t5,at,0x8
 1d4:	a91a0400 	swl	k0,1024(t0)
 1d8:	05000001 	bltz	t0,1e0 <NESTED_COUNT+0xa0>
 1dc:	00000204 	0x204
 1e0:	0000024d 	break	0x0,0x9
 1e4:	061c0408 	0x61c0408
 1e8:	000001d8 	0x1d8
 1ec:	00471d04 	0x471d04
 1f0:	10020000 	beq	zero,v0,1f4 <NESTED_COUNT+0xb4>
 1f4:	02d10600 	0x2d10600
 1f8:	1e040000 	0x1e040000
 1fc:	00000193 	0x193
 200:	00041002 	srl	v0,a0,0x0
 204:	00028505 	0x28505
 208:	0000a400 	sll	s4,zero,0x10
 20c:	28049c00 	slti	a0,zero,-25600
 210:	00028c06 	0x28c06
 214:	852a0400 	lh	t2,1024(t1)
 218:	02000002 	0x2000002
 21c:	cb060010 	lwc2	$6,16(t8)
 220:	04000007 	bltz	zero,240 <NESTED_COUNT+0x100>
 224:	0000472d 	0x472d
 228:	80100300 	lb	s0,768(zero)
 22c:	69680901 	ldl	t0,2305(t3)
 230:	472e0400 	c1	0x12e0400
 234:	03000000 	0x3000000
 238:	09018410 	j	4061040 <NESTED_COUNT+0x4060f00>
 23c:	04006f6c 	bltz	zero,1bff0 <NESTED_COUNT+0x1beb0>
 240:	0000472f 	0x472f
 244:	88100300 	lwl	s0,768(zero)
 248:	02610601 	0x2610601
 24c:	30040000 	andi	a0,zero,0x0
 250:	00000047 	0x47
 254:	018c1003 	0x18c1003
 258:	0002e006 	srlv	gp,v0,zero
 25c:	47310400 	c1	0x1310400
 260:	03000000 	0x3000000
 264:	06019010 	bgez	s0,fffe42a8 <__bbs_end+0x5f7cc400>
 268:	00000178 	dsll	zero,zero,0x5
 26c:	00473204 	0x473204
 270:	10030000 	beq	zero,v1,274 <NESTED_COUNT+0x134>
 274:	70090194 	0x70090194
 278:	33040063 	andi	a0,t8,0x63
 27c:	00000047 	0x47
 280:	01981003 	0x1981003
 284:	02950c00 	0x2950c00
 288:	00470000 	0x470000
 28c:	950d0000 	lhu	t5,0(t0)
 290:	1f000002 	bgtz	t8,29c <NESTED_COUNT+0x15c>
 294:	018a0200 	0x18a0200
 298:	07040000 	0x7040000
 29c:	0000e803 	sra	sp,zero,0x0
 2a0:	04340400 	0x4340400
 2a4:	0e000002 	jal	8000008 <NESTED_COUNT+0x7fffec8>
 2a8:	013f0304 	0x13f0304
 2ac:	4d040000 	0x4d040000
 2b0:	000000b7 	0xb7
 2b4:	00008503 	sra	s0,zero,0x14
 2b8:	bf0a0300 	cache	0xa,768(t8)
 2bc:	07000002 	bltz	t8,2c8 <NESTED_COUNT+0x188>
 2c0:	0002c504 	0x2c504
 2c4:	10010f00 	beq	zero,at,3ec8 <NESTED_COUNT+0x3d88>
 2c8:	000002fa 	dsrl	zero,zero,0xb
 2cc:	0611030c 	bgezal	s0,f00 <NESTED_COUNT+0xdc0>
 2d0:	00000145 	0x145
 2d4:	02fa0e03 	0x2fa0e03
 2d8:	10020000 	beq	zero,v0,2dc <NESTED_COUNT+0x19c>
 2dc:	00ae0600 	0xae0600
 2e0:	0f030000 	jal	c0c0000 <NESTED_COUNT+0xc0bfec0>
 2e4:	000002b4 	teq	zero,zero,0xa
 2e8:	06041002 	0x6041002
 2ec:	000002d1 	0x2d1
 2f0:	01931003 	0x1931003
 2f4:	10020000 	beq	zero,v0,2f8 <NESTED_COUNT+0x1b8>
 2f8:	04070008 	0x4070008
 2fc:	00000300 	sll	zero,zero,0xc
 300:	00030511 	0x30511
 304:	01650200 	0x1650200
 308:	05010000 	bgez	t0,30c <NESTED_COUNT+0x1cc>
 30c:	00028703 	sra	s0,v0,0x1c
 310:	c7110300 	lwc1	$f17,768(t8)
 314:	12000002 	beqz	s0,320 <NESTED_COUNT+0x1e0>
 318:	00000347 	0x347
 31c:	0000008d 	break	0x0,0x2
 320:	47014c01 	c1	0x1014c01
 324:	20000003 	addi	zero,zero,3
 328:	d4a08004 	ldc1	$f0,-32764(a1)
 32c:	10a08004 	beqz	a1,fffe0340 <__bbs_end+0x5f7c8498>
 330:	01000000 	0x1000000
 334:	01a7136d 	0x1a7136d
 338:	4d010000 	bc3t	33c <NESTED_COUNT+0x1fc>
 33c:	00000047 	0x47
 340:	3a640305 	xori	a0,s3,0x305
 344:	0700a080 	bltz	t8,fffe8548 <__bbs_end+0x5f7d06a0>
 348:	00004704 	0x4704
 34c:	03821400 	0x3821400
 350:	02910000 	0x2910000
 354:	6e010000 	ldr	at,0(s0)
 358:	8004d401 	lb	a0,-11263(zero)
 35c:	80059ca0 	lb	a1,-25440(zero)
 360:	000028a0 	0x28a0
 364:	136d0100 	beq	k1,t5,768 <NESTED_COUNT+0x628>
 368:	000001ac 	0x1ac
 36c:	03476f01 	0x3476f01
 370:	54010000 	bnel	zero,at,374 <NESTED_COUNT+0x234>
 374:	0001d813 	0x1d813
 378:	476f0100 	c1	0x16f0100
 37c:	01000000 	0x1000000
 380:	08150052 	j	540148 <NESTED_COUNT+0x540008>
 384:	01000001 	0x1000001
 388:	0076018a 	0x76018a
 38c:	059c0000 	0x59c0000
 390:	0620a080 	bltz	s1,fffe8594 <__bbs_end+0x5f7d06ec>
 394:	0040a080 	0x40a080
 398:	6d010000 	ldr	at,0(t0)
 39c:	0003df16 	0x3df16
 3a0:	00bd0100 	0xbd0100
 3a4:	af010000 	sw	at,0(t8)
 3a8:	80062001 	lb	a2,8193(zero)
 3ac:	800718a0 	lb	a3,6304(zero)
 3b0:	000058a0 	0x58a0
 3b4:	136d0100 	beq	k1,t5,7b8 <NESTED_COUNT+0x678>
 3b8:	000007cf 	0x7cf
 3bc:	03dfb001 	0x3dfb001
 3c0:	03050000 	0x3050000
 3c4:	a0803a68 	sb	zero,14952(a0)
 3c8:	01006917 	0x1006917
 3cc:	000076b1 	tgeu	zero,zero,0x1da
 3d0:	18610100 	0x18610100
 3d4:	000002cc 	syscall	0xb
 3d8:	0076b101 	0x76b101
 3dc:	0c000000 	jal	0 <KERNEL-0x8>
 3e0:	000003ef 	0x3ef
 3e4:	000003ef 	0x3ef
 3e8:	0002950d 	break	0x2,0x254
 3ec:	07000400 	bltz	t8,13f0 <NESTED_COUNT+0x12b0>
 3f0:	00030504 	0x30504
 3f4:	b2011900 	sdl	at,6400(s0)
 3f8:	01000001 	0x1000001
 3fc:	071801be 	0x71801be
 400:	079ca080 	0x79ca080
 404:	0084a080 	0x84a080
 408:	6d010000 	ldr	at,0(t0)
 40c:	00044d16 	0x44d16
 410:	00000100 	sll	zero,zero,0x4
 414:	d2010000 	lld	at,0(s0)
 418:	80079c01 	lb	a3,-25599(zero)
 41c:	8007c0a0 	lb	a3,-16224(zero)
 420:	00009ca0 	0x9ca0
 424:	1a6d0100 	0x1a6d0100
 428:	0000012c 	0x12c
 42c:	0076d101 	0x76d101
 430:	54010000 	bnel	zero,at,434 <NESTED_COUNT+0x2f4>
 434:	00023c13 	0x23c13
 438:	52d50100 	beql	s6,s5,83c <NESTED_COUNT+0x6fc>
 43c:	01000000 	0x1000000
 440:	00691752 	0x691752
 444:	0076d601 	0x76d601
 448:	52010000 	beql	s0,at,44c <NESTED_COUNT+0x30c>
 44c:	04751600 	0x4751600
 450:	23010000 	addi	at,t8,0
 454:	01000000 	0x1000000
 458:	07c001de 	bltz	s8,bd4 <NESTED_COUNT+0xa94>
 45c:	07cca080 	teqi	s8,-24448
 460:	00aca080 	0xaca080
 464:	6d010000 	ldr	at,0(t0)
 468:	0068631b 	0x68631b
 46c:	0305dd01 	0x305dd01
 470:	54010000 	bnel	zero,at,474 <NESTED_COUNT+0x334>
 474:	04d61c00 	0x4d61c00
 478:	ea010000 	swc2	$1,0(s0)
 47c:	01000002 	0x1000002
 480:	007601e2 	0x7601e2
 484:	07cc0000 	teqi	s8,0
 488:	0800a080 	j	28200 <NESTED_COUNT+0x280c0>
 48c:	00bca080 	0xbca080
 490:	6d010000 	ldr	at,0(t0)
 494:	0004eb1a 	0x4eb1a
 498:	76e20100 	jalx	b880400 <NESTED_COUNT+0xb8802c0>
 49c:	01000000 	0x1000000
 4a0:	6f631b54 	ldr	v1,6996(k1)
 4a4:	e201006c 	sc	at,108(s0)
 4a8:	00000076 	tne	zero,zero,0x1
 4ac:	631b5501 	daddi	k1,t8,21761
 4b0:	05e20100 	bltzl	t7,8b4 <NESTED_COUNT+0x774>
 4b4:	01000003 	0x1000003
 4b8:	023c1360 	0x23c1360
 4bc:	e3010000 	sc	at,0(t8)
 4c0:	00000052 	0x52
 4c4:	011d5301 	0x11d5301
 4c8:	000000ca 	0xca
 4cc:	0076e401 	0x76e401
 4d0:	1e010000 	0x1e010000
 4d4:	78120000 	0x78120000
 4d8:	36000005 	ori	zero,s0,0x5
 4dc:	01000001 	0x1000001
 4e0:	007601ec 	0x7601ec
 4e4:	08000000 	j	0 <KERNEL-0x8>
 4e8:	09bca080 	j	6f28200 <NESTED_COUNT+0x6f280c0>
 4ec:	00d8a080 	0xd8a080
 4f0:	6d010000 	ldr	at,0(t0)
 4f4:	0001451a 	0x1451a
 4f8:	faeb0100 	sdc2	$11,256(s7)
 4fc:	01000002 	0x1000002
 500:	756e1754 	jalx	5b85d50 <NESTED_COUNT+0x5b85c10>
 504:	ef01006d 	swc3	$1,109(t8)
 508:	00000076 	tne	zero,zero,0x1
 50c:	691f6201 	ldl	ra,25089(t0)
 510:	76f00100 	jalx	bc00400 <NESTED_COUNT+0xbc002c0>
 514:	13000000 	beqz	t8,518 <NESTED_COUNT+0x3d8>
 518:	000000b6 	tne	zero,zero,0x2
 51c:	0578f101 	0x578f101
 520:	53010000 	beql	t8,at,524 <NESTED_COUNT+0x3e4>
 524:	6469701f 	daddiu	t1,v1,28703
 528:	6bf20100 	ldl	s2,256(ra)
 52c:	1f000000 	bgtz	t8,530 <NESTED_COUNT+0x3f0>
 530:	f3010070 	scd	at,112(t8)
 534:	0000057e 	dsrl32	zero,zero,0x15
 538:	00697417 	0x697417
 53c:	01dbf401 	0x1dbf401
 540:	91020000 	lbu	v0,0(t0)
 544:	05582010 	0x5582010
 548:	7a010000 	0x7a010000
 54c:	01000002 	0x1000002
 550:	000076fe 	dsrl32	t6,zero,0x1b
 554:	001e0100 	sll	zero,s8,0x4
 558:	00058421 	0x58421
 55c:	80088c00 	lb	t0,-29696(zero)
 560:	800894a0 	lb	t0,-27488(zero)
 564:	059122a0 	bgezal	t4,8fe8 <NESTED_COUNT+0x8ea8>
 568:	61010000 	daddi	at,t0,0
 56c:	00059a23 	0x59a23
 570:	05a52300 	0x5a52300
 574:	00000000 	nop
 578:	030c0407 	0x30c0407
 57c:	04070000 	0x4070000
 580:	000002a9 	0x2a9
 584:	0005b024 	and	s6,zero,a1
 588:	0000d900 	sll	k1,zero,0x4
 58c:	01550100 	0x1550100
 590:	00702501 	0x702501
 594:	057e5401 	0x57e5401
 598:	70250000 	0x70250000
 59c:	01006469 	0x1006469
 5a0:	00006b54 	0x6b54
 5a4:	69742500 	ldl	s4,9472(t3)
 5a8:	b0540100 	sdl	s4,256(v0)
 5ac:	00000005 	0x5
 5b0:	01db0407 	0x1db0407
 5b4:	14160000 	bne	zero,s6,5b8 <NESTED_COUNT+0x478>
 5b8:	01000006 	srlv	zero,zero,t0
 5bc:	00000070 	tge	zero,zero,0x1
 5c0:	00012901 	0x12901
 5c4:	18a08002 	blez	a1,fffe05d0 <__bbs_end+0x5f7c8728>
 5c8:	04a08004 	bltz	a1,fffe05dc <__bbs_end+0x5f7c8734>
 5cc:	01000001 	0x1000001
 5d0:	005e136d 	0x5e136d
 5d4:	2b010000 	slti	at,t8,0
 5d8:	000002a9 	0x2a9
 5dc:	3b380305 	xori	t8,t9,0x305
 5e0:	6917a080 	ldl	s7,-24448(t0)
 5e4:	762c0100 	jalx	8b00400 <NESTED_COUNT+0x8b002c0>
 5e8:	01000000 	0x1000000
 5ec:	06142153 	0x6142153
 5f0:	02880000 	0x2880000
 5f4:	0360a080 	0x360a080
 5f8:	2126a080 	addi	a2,t1,-24448
 5fc:	01000006 	srlv	zero,zero,t0
 600:	02882753 	0x2882753
 604:	0360a080 	0x360a080
 608:	2126a080 	addi	a2,t1,-24448
 60c:	01000006 	srlv	zero,zero,t0
 610:	00000053 	0x53
 614:	00062c24 	0x62c24
 618:	00029d00 	sll	s3,v0,0x14
 61c:	01940100 	0x1940100
 620:	6e661f01 	ldr	a2,7937(s3)
 624:	76950100 	jalx	a540400 <NESTED_COUNT+0xa5402c0>
 628:	00000000 	nop
 62c:	00067428 	0x67428
 630:	0001f200 	sll	s8,at,0x8
 634:	010d0100 	0x10d0100
 638:	00007601 	0x7601
 63c:	8009bc00 	lb	t1,-17408(zero)
 640:	800ab0a0 	lb	t2,-20320(zero)
 644:	00011ca0 	0x11ca0
 648:	296d0100 	slti	t5,t3,256
 64c:	00646970 	tge	v1,a0,0x1a5
 650:	6b010c01 	ldl	at,3073(t8)
 654:	01000000 	0x1000000
 658:	756e2a54 	jalx	5b8a950 <NESTED_COUNT+0x5b8a810>
 65c:	1001006d 	beq	zero,at,814 <NESTED_COUNT+0x6d4>
 660:	00007601 	0x7601
 664:	2a610100 	slti	at,s3,256
 668:	10010069 	beq	zero,at,810 <NESTED_COUNT+0x6d0>
 66c:	00007601 	0x7601
 670:	00550100 	0x550100
 674:	0006ba28 	0x6ba28
 678:	0002bc00 	sll	s7,v0,0x10
 67c:	01310100 	0x1310100
 680:	00007601 	0x7601
 684:	800ab000 	lb	t2,-20480(zero)
 688:	800b4ca0 	lb	t3,19616(zero)
 68c:	000140a0 	0x140a0
 690:	296d0100 	slti	t5,t3,256
 694:	00646970 	tge	v1,a0,0x1a5
 698:	6b013001 	ldl	at,12289(t8)
 69c:	01000000 	0x1000000
 6a0:	756e2b54 	jalx	5b8ad50 <NESTED_COUNT+0x5b8ac10>
 6a4:	3401006d 	li	at,0x6d
 6a8:	00007601 	0x7601
 6ac:	00692a00 	0x692a00
 6b0:	76013501 	jalx	804d404 <NESTED_COUNT+0x804d2c4>
 6b4:	01000000 	0x1000000
 6b8:	c52c0055 	lwc1	$f12,85(t1)
 6bc:	76000006 	jalx	8000018 <NESTED_COUNT+0x7fffed8>
 6c0:	1e000000 	bgtz	s0,6c4 <NESTED_COUNT+0x584>
 6c4:	06d50c00 	0x6d50c00
 6c8:	06d50000 	0x6d50000
 6cc:	950d0000 	lhu	t5,0(t0)
 6d0:	10000002 	b	6dc <NESTED_COUNT+0x59c>
 6d4:	ba040700 	swr	a0,1792(s0)
 6d8:	2d000006 	sltiu	zero,t0,6
 6dc:	00000110 	0x110
 6e0:	06c51701 	0x6c51701
 6e4:	05010000 	bgez	t0,6e8 <NESTED_COUNT+0x5a8>
 6e8:	80c6d003 	lb	a2,-12285(a2)
 6ec:	02412ea0 	0x2412ea0
 6f0:	4f040000 	c3	0x1040000
 6f4:	000000ac 	0xac
 6f8:	ab2e0101 	swl	t6,257(t9)
 6fc:	04000002 	bltz	zero,708 <NESTED_COUNT+0x5c8>
 700:	0000ac50 	0xac50
 704:	2e010100 	sltiu	at,s0,256
 708:	00000460 	0x460
 70c:	057e5104 	0x57e5104
 710:	01010000 	0x1010000
 714:	0007240c 	syscall	0x1c90
 718:	0002a900 	sll	s5,v0,0x4
 71c:	02950d00 	0x2950d00
 720:	001f0000 	sll	zero,ra,0x0
 724:	6263702f 	daddi	v1,s3,28719
 728:	14140100 	bne	zero,s4,b2c <NESTED_COUNT+0x9ec>
 72c:	01000007 	srav	zero,zero,t0
 730:	c7180305 	lwc1	$f24,773(t8)
 734:	122da080 	beq	s1,t5,fffe8938 <__bbs_end+0x5f7d0a90>
 738:	01000002 	0x1000002
 73c:	00006b24 	0x6b24
 740:	03050100 	0x3050100
 744:	a0803a60 	sb	zero,14944(a0)
 748:	0000fc2d 	0xfc2d
 74c:	76ea0100 	jalx	ba80400 <NESTED_COUNT+0xba802c0>
 750:	01000000 	0x1000000
 754:	3b300305 	xori	s0,t9,0x305
 758:	Address 0x0000000000000758 is out of bounds.

Disassembly of section .debug_line:

00000000 <.debug_line>:
   0:	000001a4 	0x1a4
   4:	005c0002 	0x5c0002
   8:	01010000 	0x1010000
   c:	000d0efb 	dsra	at,t5,0x1b
  10:	01010101 	0x1010101
  14:	01000000 	0x1000000
  18:	00010000 	sll	zero,at,0x0
  1c:	6e72656b 	ldr	s2,25963(s3)
  20:	632e6c65 	daddi	t6,t9,27749
  24:	00000000 	nop
  28:	6d6d6f63 	ldr	t5,28515(t3)
  2c:	682e6e6f 	ldl	t6,28271(at)
  30:	00000000 	nop
  34:	646d6172 	daddiu	t5,v1,24946
  38:	2e6b7369 	sltiu	t3,s3,29545
  3c:	00000068 	0x68
  40:	68637300 	ldl	v1,29440(v1)
  44:	6c756465 	ldr	s5,25701(v1)
  48:	682e7265 	ldl	t6,29285(at)
  4c:	00000000 	nop
  50:	636e7973 	daddi	t6,k1,31091
  54:	0000682e 	dneg	t5,zero
  58:	75710000 	jalx	5c40000 <NESTED_COUNT+0x5c3fec0>
  5c:	2e657565 	sltiu	a1,s3,30053
  60:	00000068 	0x68
  64:	05000000 	bltz	t0,68 <KERNEL+0x60>
  68:	80042002 	lb	a0,8194(zero)
  6c:	00cb03a0 	0xcb03a0
  70:	4d474d01 	0x4d474d01
  74:	4a4b4983 	c2	0x4b4983
  78:	1e03f084 	0x1e03f084
  7c:	85017c02 	lh	at,31746(t0)
  80:	4e3d0884 	c3	0x3d0884
  84:	02b30888 	0x2b30888
  88:	4b49187c 	c2	0x149187c
  8c:	29034b81 	slti	v1,t0,19329
  90:	45017002 	bc1t	1c09c <NESTED_COUNT+0x1bf5c>
  94:	7908b54f 	0x7908b54f
  98:	13240283 	beq	t9,a0,aa8 <NESTED_COUNT+0x968>
  9c:	4b493d08 	c2	0x1493d08
  a0:	08114402 	j	451008 <NESTED_COUNT+0x450ec8>
  a4:	0214033c 	0x214033c
  a8:	7403012c 	jalx	c04b0 <NESTED_COUNT+0xc0370>
  ac:	4a0c034a 	c2	0xc034a
  b0:	03827403 	0x3827403
  b4:	0c034a0c 	jal	d2830 <NESTED_COUNT+0xd26f0>
  b8:	83017002 	lb	at,28674(t8)
  bc:	bcbdf9bb 	cache	0x1d,-1605(a1)
  c0:	844e4684 	lh	t6,18052(v0)
  c4:	080a03f6 	j	280fd8 <NESTED_COUNT+0x280e98>
  c8:	c0bb4be4 	ll	k1,19428(a1)
  cc:	49854abb 	0x49854abb
  d0:	f383474f 	scd	v1,18255(gp)
  d4:	7ed20383 	0x7ed20383
  d8:	b00348ba 	sdl	v1,18618(zero)
  dc:	d0034a01 	lld	v1,18945(zero)
  e0:	4b4b827e 	c2	0x14b827e
  e4:	03824d4b 	0x3824d4b
  e8:	7703820b 	jalx	c0e082c <NESTED_COUNT+0xc0e06ec>
  ec:	bb017802 	swr	at,30722(t8)
  f0:	4a01a903 	c2	0x1a903
  f4:	087ee103 	j	1fb840c <NESTED_COUNT+0x1fb82cc>
  f8:	019f0374 	teq	t4,ra,0xd
  fc:	4b838282 	c2	0x1838282
 100:	027ed803 	0x27ed803
 104:	bb830128 	swr	v1,296(gp)
 108:	8201a903 	lb	at,-22269(s0)
 10c:	8682b6be 	lh	v0,-18754(s4)
 110:	83ba4abb 	lb	k0,19131(sp)
 114:	03844a4e 	0x3844a4e
 118:	0286f209 	0x286f209
 11c:	4b801424 	c2	0x1801424
 120:	6c03844f 	ldr	v1,-31665(zero)
 124:	8683ac08 	lh	v1,-21496(s4)
 128:	f2110383 	scd	s1,899(s0)
 12c:	4a4f7d87 	c2	0x4f7d87
 130:	4a7508f5 	c2	0x7508f5
 134:	844a87ba 	lh	t2,-30790(v0)
 138:	83838483 	lb	v1,-31613(gp)
 13c:	0014024b 	0x14024b
 140:	05000101 	bltz	t0,548 <NESTED_COUNT+0x408>
 144:	80020002 	lb	v0,2(zero)
 148:	012803a0 	0x12803a0
 14c:	3e088683 	0x3e088683
 150:	2402bbbb 	li	v0,-17477
 154:	df034b17 	ld	v1,19223(t8)
 158:	01240200 	0x1240200
 15c:	1003bc4b 	beq	zero,v1,fffef28c <__bbs_end+0x5f7d73e4>
 160:	4a7103ba 	c2	0x7103ba
 164:	034a0f03 	0x34a0f03
 168:	0f034a71 	jal	c0d29c4 <NESTED_COUNT+0xc0d2884>
 16c:	4a71034a 	c2	0x71034a
 170:	4b494b4b 	c2	0x1494b4b
 174:	4b4b4b49 	c2	0x14b4b49
 178:	4b494b49 	c2	0x1494b49
 17c:	4b494b4b 	c2	0x1494b4b
 180:	4b4b4b49 	c2	0x14b4b49
 184:	4b494b49 	c2	0x1494b49
 188:	4b494b4b 	c2	0x1494b4b
 18c:	4b4b4b49 	c2	0x14b4b49
 190:	4b494b49 	c2	0x1494b49
 194:	4b494b4b 	c2	0x1494b4b
 198:	7f940349 	0x7f940349
 19c:	84f3844a 	lh	s3,-31670(a3)
 1a0:	028583bc 	0x28583bc
 1a4:	0101007c 	0x101007c
Disassembly of section .debug_frame:

00000000 <.debug_frame>:
   0:	0000000c 	syscall
   4:	ffffffff 	sd	ra,-1(ra)
   8:	04010001 	b	10 <KERNEL+0x8>
   c:	001d0c1f 	0x1d0c1f
  10:	00000014 	dsllv	zero,zero,zero
  14:	00000000 	nop
  18:	a0800420 	sb	zero,1056(a0)
  1c:	000000b4 	teq	zero,zero,0x2
  20:	48180e44 	0x48180e44
  24:	007e1f11 	0x7e1f11
  28:	00000014 	dsllv	zero,zero,zero
  2c:	00000000 	nop
  30:	a08004d4 	sb	zero,1236(a0)
  34:	000000c8 	0xc8
  38:	44180e44 	0x44180e44
  3c:	007e1f11 	0x7e1f11
  40:	00000014 	dsllv	zero,zero,zero
  44:	00000000 	nop
  48:	a080059c 	sb	zero,1436(a0)
  4c:	00000084 	0x84
  50:	4c180e48 	0x4c180e48
  54:	007e1f11 	0x7e1f11
  58:	00000028 	0x28
  5c:	00000000 	nop
  60:	a0800620 	sb	zero,1568(a0)
  64:	000000f8 	dsll	zero,zero,0x3
  68:	64400e48 	daddiu	zero,v0,3656
  6c:	11781011 	beq	t3,t8,40b4 <NESTED_COUNT+0x3f74>
  70:	12117911 	beq	s0,s1,1e4b8 <NESTED_COUNT+0x1e378>
  74:	7b13117a 	0x7b13117a
  78:	117c1411 	beq	t3,gp,50c0 <NESTED_COUNT+0x4f80>
  7c:	1f117d15 	0x1f117d15
  80:	0000007e 	dsrl32	zero,zero,0x1
  84:	00000014 	dsllv	zero,zero,zero
  88:	00000000 	nop
  8c:	a0800718 	sb	zero,1816(a0)
  90:	00000084 	0x84
  94:	4c180e48 	0x4c180e48
  98:	007e1f11 	0x7e1f11
  9c:	0000000c 	syscall
  a0:	00000000 	nop
  a4:	a080079c 	sb	zero,1948(a0)
  a8:	00000024 	and	zero,zero,zero
  ac:	0000000c 	syscall
  b0:	00000000 	nop
  b4:	a08007c0 	sb	zero,1984(a0)
  b8:	0000000c 	syscall
  bc:	00000018 	mult	zero,zero
  c0:	00000000 	nop
  c4:	a08007cc 	sb	zero,1996(a0)
  c8:	00000034 	teq	zero,zero
  cc:	48180e44 	0x48180e44
  d0:	117e1011 	beq	t3,s8,4118 <NESTED_COUNT+0x3fd8>
  d4:	00007f1f 	0x7f1f
  d8:	00000028 	0x28
  dc:	00000000 	nop
  e0:	a0800800 	sb	zero,2048(a0)
  e4:	000001bc 	dsll32	zero,zero,0x6
  e8:	5c380e44 	0x5c380e44
  ec:	11781011 	beq	t3,t8,4134 <NESTED_COUNT+0x3ff4>
  f0:	12117911 	beq	s0,s1,1e538 <NESTED_COUNT+0x1e3f8>
  f4:	7c14117a 	0x7c14117a
  f8:	117d1511 	beq	t3,sp,5540 <NESTED_COUNT+0x5400>
  fc:	13117e1f 	beq	t8,s1,1f97c <NESTED_COUNT+0x1f83c>
 100:	0000007b 	dsra	zero,zero,0x1
 104:	00000014 	dsllv	zero,zero,zero
 108:	00000000 	nop
 10c:	a0800200 	sb	zero,512(a0)
 110:	00000218 	0x218
 114:	44180e44 	0x44180e44
 118:	007e1f11 	0x7e1f11
 11c:	00000020 	add	zero,zero,zero
 120:	00000000 	nop
 124:	a08009bc 	sb	zero,2492(a0)
 128:	000000f4 	teq	zero,zero,0x3
 12c:	44200e44 	0x44200e44
 130:	587e1211 	0x587e1211
 134:	117c1011 	beq	t3,gp,417c <NESTED_COUNT+0x403c>
 138:	1f117d11 	0x1f117d11
 13c:	0000007f 	dsra32	zero,zero,0x1
 140:	00000018 	mult	zero,zero
 144:	00000000 	nop
 148:	a0800ab0 	sb	zero,2736(a0)
 14c:	0000009c 	0x9c
 150:	44180e44 	0x44180e44
 154:	4c7e1011 	0x4c7e1011
 158:	007f1f11 	0x7f1f11
 15c:	0000000c 	syscall
 160:	ffffffff 	sd	ra,-1(ra)
 164:	04010001 	b	16c <NESTED_COUNT+0x2c>
 168:	001d0c1f 	0x1d0c1f
 16c:	0000001c 	dmult	zero,zero
 170:	0000015c 	0x15c
 174:	a0801590 	sb	zero,5520(a0)
 178:	000000ec 	0xec
 17c:	4c200e44 	0x4c200e44
 180:	117e1f11 	beq	t3,s8,7dc8 <NESTED_COUNT+0x7c88>
 184:	11117c10 	beq	t0,s1,1f1c8 <NESTED_COUNT+0x1f088>
 188:	0000007d 	0x7d
 18c:	00000020 	add	zero,zero,zero
 190:	0000015c 	0x15c
 194:	a080167c 	sb	zero,5756(a0)
 198:	00000098 	0x98
 19c:	50300e44 	beql	at,s0,3ab0 <NESTED_COUNT+0x3970>
 1a0:	117c1011 	beq	t3,gp,41e8 <NESTED_COUNT+0x40a8>
 1a4:	12117d11 	beq	s0,s1,1f5ec <NESTED_COUNT+0x1f4ac>
 1a8:	1f11487e 	0x1f11487e
 1ac:	0000007f 	dsra32	zero,zero,0x1
 1b0:	0000002c 	dadd	zero,zero,zero
 1b4:	0000015c 	0x15c
 1b8:	a0801714 	sb	zero,5908(a0)
 1bc:	0000024c 	syscall	0x9
 1c0:	64380e44 	daddiu	t8,at,3652
 1c4:	11761011 	beq	t3,s6,420c <NESTED_COUNT+0x40cc>
 1c8:	14117812 	bne	zero,s1,1e214 <NESTED_COUNT+0x1e0d4>
 1cc:	7b15117a 	0x7b15117a
 1d0:	117c1611 	beq	t3,gp,5a18 <NESTED_COUNT+0x58d8>
 1d4:	1f117d17 	0x1f117d17
 1d8:	7711117e 	jalx	c4445f8 <NESTED_COUNT+0xc4444b8>
 1dc:	00791311 	0x791311
 1e0:	0000000c 	syscall
 1e4:	ffffffff 	sd	ra,-1(ra)
 1e8:	04010001 	b	1f0 <NESTED_COUNT+0xb0>
 1ec:	001d0c1f 	0x1d0c1f
 1f0:	00000024 	and	zero,zero,zero
 1f4:	000001e0 	0x1e0
 1f8:	a0801960 	sb	zero,6496(a0)
 1fc:	000000dc 	0xdc
 200:	5c280e44 	0x5c280e44
 204:	117a1011 	beq	t3,k0,424c <NESTED_COUNT+0x410c>
 208:	13117b11 	beq	t8,s1,1ee50 <NESTED_COUNT+0x1ed10>
 20c:	7f1f117d 	0x7f1f117d
 210:	117c1211 	beq	t3,gp,4a58 <NESTED_COUNT+0x4918>
 214:	00007e14 	0x7e14
 218:	00000014 	dsllv	zero,zero,zero
 21c:	000001e0 	0x1e0
 220:	a0801a3c 	sb	zero,6716(a0)
 224:	0000003c 	dsll32	zero,zero,0x0
 228:	64180e44 	daddiu	t8,zero,3652
 22c:	007e1f11 	0x7e1f11
 230:	00000018 	mult	zero,zero
 234:	000001e0 	0x1e0
 238:	a0801a78 	sb	zero,6776(a0)
 23c:	0000005c 	0x5c
 240:	54180e44 	bnel	zero,t8,3b54 <NESTED_COUNT+0x3a14>
 244:	507e1011 	beql	v1,s8,428c <NESTED_COUNT+0x414c>
 248:	007f1f11 	0x7f1f11
 24c:	0000000c 	syscall
 250:	ffffffff 	sd	ra,-1(ra)
 254:	04010001 	b	25c <NESTED_COUNT+0x11c>
 258:	001d0c1f 	0x1d0c1f
 25c:	0000000c 	syscall
 260:	0000024c 	syscall	0x9
 264:	a0801ae0 	sb	zero,6880(a0)
 268:	00000154 	0x154
 26c:	0000000c 	syscall
 270:	0000024c 	syscall	0x9
 274:	a0801c34 	sb	zero,7220(a0)
 278:	0000007c 	dsll32	zero,zero,0x1
 27c:	0000000c 	syscall
 280:	0000024c 	syscall	0x9
 284:	a0801cb0 	sb	zero,7344(a0)
 288:	000000e8 	0xe8
 28c:	00000020 	add	zero,zero,zero
 290:	0000024c 	syscall	0x9
 294:	a0801d98 	sb	zero,7576(a0)
 298:	00000514 	0x514
 29c:	08a00e44 	j	2803910 <NESTED_COUNT+0x28037d0>
 2a0:	7e1f1154 	0x7e1f1154
 2a4:	117a1011 	beq	t3,k0,42ec <NESTED_COUNT+0x41ac>
 2a8:	12117b11 	beq	s0,s1,1eef0 <NESTED_COUNT+0x1edb0>
 2ac:	7d13117c 	0x7d13117c
 2b0:	0000000c 	syscall
 2b4:	ffffffff 	sd	ra,-1(ra)
 2b8:	04010001 	b	2c0 <NESTED_COUNT+0x180>
 2bc:	001d0c1f 	0x1d0c1f
 2c0:	0000001c 	dmult	zero,zero
 2c4:	000002b0 	tge	zero,zero,0xa
 2c8:	a08022b0 	sb	zero,8880(a0)
 2cc:	000000a4 	0xa4
 2d0:	44200e44 	0x44200e44
 2d4:	487d1111 	0x487d1111
 2d8:	117c1011 	beq	t3,gp,4320 <NESTED_COUNT+0x41e0>
 2dc:	00007e1f 	0x7e1f
 2e0:	0000000c 	syscall
 2e4:	000002b0 	tge	zero,zero,0xa
 2e8:	a0802354 	sb	zero,9044(a0)
 2ec:	0000001c 	dmult	zero,zero
 2f0:	00000018 	mult	zero,zero
 2f4:	000002b0 	tge	zero,zero,0xa
 2f8:	a0802370 	sb	zero,9072(a0)
 2fc:	0000017c 	dsll32	zero,zero,0x5
 300:	48180e44 	0x48180e44
 304:	117e1011 	beq	t3,s8,434c <NESTED_COUNT+0x420c>
 308:	00007f1f 	0x7f1f
 30c:	0000000c 	syscall
 310:	000002b0 	tge	zero,zero,0xa
 314:	a08024ec 	sb	zero,9452(a0)
 318:	00000040 	sll	zero,zero,0x1
 31c:	00000018 	mult	zero,zero
 320:	000002b0 	tge	zero,zero,0xa
 324:	a080252c 	sb	zero,9516(a0)
 328:	00000178 	dsll	zero,zero,0x5
 32c:	48180e44 	0x48180e44
 330:	117f1f11 	beq	t3,ra,7f78 <NESTED_COUNT+0x7e38>
 334:	00007e10 	0x7e10
 338:	00000014 	dsllv	zero,zero,zero
 33c:	000002b0 	tge	zero,zero,0xa
 340:	a08026a4 	sb	zero,9892(a0)
 344:	00000024 	and	zero,zero,zero
 348:	44180e44 	0x44180e44
 34c:	007e1f11 	0x7e1f11
 350:	00000014 	dsllv	zero,zero,zero
 354:	000002b0 	tge	zero,zero,0xa
 358:	a08026c8 	sb	zero,9928(a0)
 35c:	0000002c 	dadd	zero,zero,zero
 360:	44180e44 	0x44180e44
 364:	007e1f11 	0x7e1f11
 368:	00000014 	dsllv	zero,zero,zero
 36c:	000002b0 	tge	zero,zero,0xa
 370:	a08026f4 	sb	zero,9972(a0)
 374:	000000b8 	dsll	zero,zero,0x2
 378:	44180e44 	0x44180e44
 37c:	007e1f11 	0x7e1f11
 380:	00000014 	dsllv	zero,zero,zero
 384:	000002b0 	tge	zero,zero,0xa
 388:	a08027ac 	sb	zero,10156(a0)
 38c:	000000b0 	tge	zero,zero,0x2
 390:	44180e44 	0x44180e44
 394:	007e1f11 	0x7e1f11
 398:	00000018 	mult	zero,zero
 39c:	000002b0 	tge	zero,zero,0xa
 3a0:	a080285c 	sb	zero,10332(a0)
 3a4:	00000034 	teq	zero,zero
 3a8:	44180e44 	0x44180e44
 3ac:	117e1011 	beq	t3,s8,43f4 <NESTED_COUNT+0x42b4>
 3b0:	00007f1f 	0x7f1f
 3b4:	0000000c 	syscall
 3b8:	000002b0 	tge	zero,zero,0xa
 3bc:	a0802890 	sb	zero,10384(a0)
 3c0:	00000014 	dsllv	zero,zero,zero
 3c4:	00000018 	mult	zero,zero
 3c8:	000002b0 	tge	zero,zero,0xa
 3cc:	a08028a4 	sb	zero,10404(a0)
 3d0:	00000034 	teq	zero,zero
 3d4:	44180e44 	0x44180e44
 3d8:	117e1011 	beq	t3,s8,4420 <NESTED_COUNT+0x42e0>
 3dc:	00007f1f 	0x7f1f
 3e0:	00000018 	mult	zero,zero
 3e4:	000002b0 	tge	zero,zero,0xa
 3e8:	a08028d8 	sb	zero,10456(a0)
 3ec:	00000048 	0x48
 3f0:	48180e44 	0x48180e44
 3f4:	117f1f11 	beq	t3,ra,803c <NESTED_COUNT+0x7efc>
 3f8:	00007e10 	0x7e10
 3fc:	0000000c 	syscall
 400:	000002b0 	tge	zero,zero,0xa
 404:	a0802920 	sb	zero,10528(a0)
 408:	00000008 	jr	zero
 40c:	0000000c 	syscall
 410:	ffffffff 	sd	ra,-1(ra)
 414:	04010001 	b	41c <NESTED_COUNT+0x2dc>
 418:	001d0c1f 	0x1d0c1f
 41c:	0000000c 	syscall
 420:	0000040c 	syscall	0x10
 424:	a0802930 	sb	zero,10544(a0)
 428:	00000008 	jr	zero
 42c:	0000000c 	syscall
 430:	0000040c 	syscall	0x10
 434:	a0802938 	sb	zero,10552(a0)
 438:	00000008 	jr	zero
 43c:	0000000c 	syscall
 440:	0000040c 	syscall	0x10
 444:	a0802940 	sb	zero,10560(a0)
 448:	00000008 	jr	zero
 44c:	0000000c 	syscall
 450:	0000040c 	syscall	0x10
 454:	a0802948 	sb	zero,10568(a0)
 458:	00000008 	jr	zero
 45c:	0000000c 	syscall
 460:	0000040c 	syscall	0x10
 464:	a0802950 	sb	zero,10576(a0)
 468:	00000008 	jr	zero
 46c:	0000000c 	syscall
 470:	0000040c 	syscall	0x10
 474:	a0802958 	sb	zero,10584(a0)
 478:	00000008 	jr	zero
 47c:	0000000c 	syscall
 480:	0000040c 	syscall	0x10
 484:	a0802960 	sb	zero,10592(a0)
 488:	00000008 	jr	zero
 48c:	0000000c 	syscall
 490:	0000040c 	syscall	0x10
 494:	a0802968 	sb	zero,10600(a0)
 498:	00000008 	jr	zero
 49c:	0000000c 	syscall
 4a0:	0000040c 	syscall	0x10
 4a4:	a0802970 	sb	zero,10608(a0)
 4a8:	00000008 	jr	zero
 4ac:	0000000c 	syscall
 4b0:	0000040c 	syscall	0x10
 4b4:	a0802978 	sb	zero,10616(a0)
 4b8:	00000008 	jr	zero
 4bc:	0000000c 	syscall
 4c0:	0000040c 	syscall	0x10
 4c4:	a0802980 	sb	zero,10624(a0)
 4c8:	00000008 	jr	zero
 4cc:	0000000c 	syscall
 4d0:	0000040c 	syscall	0x10
 4d4:	a0802988 	sb	zero,10632(a0)
 4d8:	00000008 	jr	zero
 4dc:	0000000c 	syscall
 4e0:	ffffffff 	sd	ra,-1(ra)
 4e4:	04010001 	b	4ec <NESTED_COUNT+0x3ac>
 4e8:	001d0c1f 	0x1d0c1f
 4ec:	0000000c 	syscall
 4f0:	000004dc 	0x4dc
 4f4:	a0802990 	sb	zero,10640(a0)
 4f8:	00000040 	sll	zero,zero,0x1
 4fc:	00000018 	mult	zero,zero
 500:	000004dc 	0x4dc
 504:	a08029d0 	sb	zero,10704(a0)
 508:	00000038 	dsll	zero,zero,0x0
 50c:	44180e44 	0x44180e44
 510:	487e1011 	0x487e1011
 514:	007f1f11 	0x7f1f11
 518:	0000000c 	syscall
 51c:	000004dc 	0x4dc
 520:	a0802a08 	sb	zero,10760(a0)
 524:	00000058 	0x58
 528:	0000000c 	syscall
 52c:	000004dc 	0x4dc
 530:	a0802a60 	sb	zero,10848(a0)
 534:	00000024 	and	zero,zero,zero
 538:	00000024 	and	zero,zero,zero
 53c:	000004dc 	0x4dc
 540:	a0802a84 	sb	zero,10884(a0)
 544:	00000080 	sll	zero,zero,0x2
 548:	44280e44 	0x44280e44
 54c:	5c7e1411 	0x5c7e1411
 550:	117f1f11 	beq	t3,ra,8198 <NESTED_COUNT+0x8058>
 554:	11117a10 	beq	t0,s1,1ed98 <NESTED_COUNT+0x1ec58>
 558:	7c12117b 	0x7c12117b
 55c:	007d1311 	0x7d1311
 560:	0000000c 	syscall
 564:	000004dc 	0x4dc
 568:	a0802b04 	sb	zero,11012(a0)
 56c:	00000058 	0x58
 570:	00000018 	mult	zero,zero
 574:	000004dc 	0x4dc
 578:	a0802b5c 	sb	zero,11100(a0)
 57c:	00000058 	0x58
 580:	48180e44 	0x48180e44
 584:	117f1f11 	beq	t3,ra,81cc <NESTED_COUNT+0x808c>
 588:	00007e10 	0x7e10
 58c:	0000000c 	syscall
 590:	000004dc 	0x4dc
 594:	a0802bb4 	sb	zero,11188(a0)
 598:	00000058 	0x58
 59c:	00000024 	and	zero,zero,zero
 5a0:	000004dc 	0x4dc
 5a4:	a0802c0c 	sb	zero,11276(a0)
 5a8:	00000098 	0x98
 5ac:	48380e44 	0x48380e44
 5b0:	587e1411 	0x587e1411
 5b4:	117c1211 	beq	t3,gp,4dfc <NESTED_COUNT+0x4cbc>
 5b8:	11117a10 	beq	t0,s1,1edfc <NESTED_COUNT+0x1ecbc>
 5bc:	7d13117b 	0x7d13117b
 5c0:	007f1f11 	0x7f1f11
 5c4:	0000000c 	syscall
 5c8:	000004dc 	0x4dc
 5cc:	a0802ca4 	sb	zero,11428(a0)
 5d0:	00000054 	0x54
 5d4:	00000024 	and	zero,zero,zero
 5d8:	000004dc 	0x4dc
 5dc:	a0802cf8 	sb	zero,11512(a0)
 5e0:	000000c8 	0xc8
 5e4:	44380e44 	0x44380e44
 5e8:	587a1011 	0x587a1011
 5ec:	117c1211 	beq	t3,gp,4e34 <NESTED_COUNT+0x4cf4>
 5f0:	1f117e14 	0x1f117e14
 5f4:	7b11117f 	0x7b11117f
 5f8:	007d1311 	0x7d1311
 5fc:	0000001c 	dmult	zero,zero
 600:	000004dc 	0x4dc
 604:	a0802dc0 	sb	zero,11712(a0)
 608:	0000007c 	dsll32	zero,zero,0x1
 60c:	44600e44 	0x44600e44
 610:	547c1011 	bnel	v1,gp,4658 <NESTED_COUNT+0x4518>
 614:	117d1111 	beq	t3,sp,4a5c <NESTED_COUNT+0x491c>
 618:	00007e1f 	0x7e1f
 61c:	0000001c 	dmult	zero,zero
 620:	000004dc 	0x4dc
 624:	a0802e3c 	sb	zero,11836(a0)
 628:	00000064 	0x64
 62c:	54200e44 	bnezl	at,3f40 <NESTED_COUNT+0x3e00>
 630:	117d1111 	beq	t3,sp,4a78 <NESTED_COUNT+0x4938>
 634:	10117f1f 	beq	zero,s1,202b4 <NESTED_COUNT+0x20174>
 638:	7e12117c 	0x7e12117c
 63c:	0000000c 	syscall
 640:	000004dc 	0x4dc
 644:	a0802ea0 	sb	zero,11936(a0)
 648:	00000064 	0x64
 64c:	0000000c 	syscall
 650:	000004dc 	0x4dc
 654:	a0802f04 	sb	zero,12036(a0)
 658:	00000068 	0x68
 65c:	0000000c 	syscall
 660:	000004dc 	0x4dc
 664:	a0802f6c 	sb	zero,12140(a0)
 668:	00000024 	and	zero,zero,zero
 66c:	0000000c 	syscall
 670:	000004dc 	0x4dc
 674:	a0802f90 	sb	zero,12176(a0)
 678:	0000000c 	syscall
 67c:	0000000c 	syscall
 680:	000004dc 	0x4dc
 684:	a0802f9c 	sb	zero,12188(a0)
 688:	0000001c 	dmult	zero,zero
 68c:	00000018 	mult	zero,zero
 690:	000004dc 	0x4dc
 694:	a0802fb8 	sb	zero,12216(a0)
 698:	00000030 	tge	zero,zero
 69c:	44180e44 	0x44180e44
 6a0:	4c7e1011 	0x4c7e1011
 6a4:	007f1f11 	0x7f1f11
 6a8:	0000000c 	syscall
 6ac:	ffffffff 	sd	ra,-1(ra)
 6b0:	04010001 	b	6b8 <NESTED_COUNT+0x578>
 6b4:	001d0c1f 	0x1d0c1f
 6b8:	0000000c 	syscall
 6bc:	000006a8 	0x6a8
 6c0:	a0802ff0 	sb	zero,12272(a0)
 6c4:	0000000c 	syscall
 6c8:	0000000c 	syscall
 6cc:	000006a8 	0x6a8
 6d0:	a0802ffc 	sb	zero,12284(a0)
 6d4:	00000030 	tge	zero,zero
 6d8:	0000000c 	syscall
 6dc:	000006a8 	0x6a8
 6e0:	a080302c 	sb	zero,12332(a0)
 6e4:	0000001c 	dmult	zero,zero
 6e8:	0000000c 	syscall
 6ec:	000006a8 	0x6a8
 6f0:	a0803048 	sb	zero,12360(a0)
 6f4:	00000010 	mfhi	zero
 6f8:	0000000c 	syscall
 6fc:	000006a8 	0x6a8
 700:	a0803058 	sb	zero,12376(a0)
 704:	00000018 	mult	zero,zero
 708:	00000020 	add	zero,zero,zero
 70c:	000006a8 	0x6a8
 710:	a0803070 	sb	zero,12400(a0)
 714:	000000b0 	tge	zero,zero,0x2
 718:	54280e44 	bnel	at,t0,402c <NESTED_COUNT+0x3eec>
 71c:	117a1011 	beq	t3,k0,4764 <NESTED_COUNT+0x4624>
 720:	11117e1f 	beq	t0,s1,1ffa0 <NESTED_COUNT+0x1fe60>
 724:	7c12117b 	0x7c12117b
 728:	007d1311 	0x7d1311
 72c:	0000000c 	syscall
 730:	ffffffff 	sd	ra,-1(ra)
 734:	04010001 	b	73c <NESTED_COUNT+0x5fc>
 738:	001d0c1f 	0x1d0c1f
 73c:	0000001c 	dmult	zero,zero
 740:	0000072c 	0x72c
 744:	a0803120 	sb	zero,12576(a0)
 748:	000000d8 	0xd8
 74c:	54200e48 	bnezl	at,4070 <NESTED_COUNT+0x3f30>
 750:	117c1011 	beq	t3,gp,4798 <NESTED_COUNT+0x4658>
 754:	1f117d11 	0x1f117d11
 758:	0000007e 	dsrl32	zero,zero,0x1
 75c:	0000000c 	syscall
 760:	0000072c 	0x72c
 764:	a08031f8 	sb	zero,12792(a0)
 768:	00000008 	jr	zero
 76c:	00000014 	dsllv	zero,zero,zero
 770:	0000072c 	0x72c
 774:	a0803200 	sb	zero,12800(a0)
 778:	00000070 	tge	zero,zero,0x1
 77c:	48180e44 	0x48180e44
 780:	007e1f11 	0x7e1f11
 784:	00000024 	and	zero,zero,zero
 788:	0000072c 	0x72c
 78c:	a0803270 	sb	zero,12912(a0)
 790:	000001d0 	0x1d0
 794:	44280e44 	0x44280e44
 798:	5c7b1111 	0x5c7b1111
 79c:	117f1f11 	beq	t3,ra,83e4 <NESTED_COUNT+0x82a4>
 7a0:	12117a10 	beq	s0,s1,1efe4 <NESTED_COUNT+0x1eea4>
 7a4:	7d13117c 	0x7d13117c
 7a8:	007e1411 	0x7e1411
 7ac:	0000000c 	syscall
 7b0:	ffffffff 	sd	ra,-1(ra)
 7b4:	04010001 	b	7bc <NESTED_COUNT+0x67c>
 7b8:	001d0c1f 	0x1d0c1f
 7bc:	0000001c 	dmult	zero,zero
 7c0:	000007ac 	0x7ac
 7c4:	a0803470 	sb	zero,13424(a0)
 7c8:	0000008c 	syscall	0x2
 7cc:	50200e44 	beqzl	at,40e0 <NESTED_COUNT+0x3fa0>
 7d0:	117c1011 	beq	t3,gp,4818 <NESTED_COUNT+0x46d8>
 7d4:	11117f1f 	beq	t0,s1,20454 <NESTED_COUNT+0x20314>
 7d8:	7e12117d 	0x7e12117d
 7dc:	0000001c 	dmult	zero,zero
 7e0:	000007ac 	0x7ac
 7e4:	a08034fc 	sb	zero,13564(a0)
 7e8:	0000008c 	syscall	0x2
 7ec:	50200e44 	beqzl	at,4100 <NESTED_COUNT+0x3fc0>
 7f0:	117c1011 	beq	t3,gp,4838 <NESTED_COUNT+0x46f8>
 7f4:	11117f1f 	beq	t0,s1,20474 <NESTED_COUNT+0x20334>
 7f8:	7e12117d 	0x7e12117d
 7fc:	0000000c 	syscall
 800:	ffffffff 	sd	ra,-1(ra)
 804:	04010001 	b	80c <NESTED_COUNT+0x6cc>
 808:	001d0c1f 	0x1d0c1f
 80c:	0000000c 	syscall
 810:	000007fc 	dsll32	zero,zero,0x1f
 814:	a0803590 	sb	zero,13712(a0)
 818:	00000008 	jr	zero
 81c:	0000000c 	syscall
 820:	000007fc 	dsll32	zero,zero,0x1f
 824:	a0803598 	sb	zero,13720(a0)
 828:	00000008 	jr	zero
 82c:	0000000c 	syscall
 830:	000007fc 	dsll32	zero,zero,0x1f
 834:	a08035a0 	sb	zero,13728(a0)
 838:	00000008 	jr	zero
 83c:	0000000c 	syscall
 840:	000007fc 	dsll32	zero,zero,0x1f
 844:	a08035a8 	sb	zero,13736(a0)
 848:	00000008 	jr	zero
 84c:	0000000c 	syscall
 850:	000007fc 	dsll32	zero,zero,0x1f
 854:	a08035b0 	sb	zero,13744(a0)
 858:	00000008 	jr	zero
 85c:	0000000c 	syscall
 860:	000007fc 	dsll32	zero,zero,0x1f
 864:	a08035b8 	sb	zero,13752(a0)
 868:	00000008 	jr	zero
 86c:	0000000c 	syscall
 870:	ffffffff 	sd	ra,-1(ra)
 874:	04010001 	b	87c <NESTED_COUNT+0x73c>
 878:	001d0c1f 	0x1d0c1f
 87c:	0000000c 	syscall
 880:	0000086c 	0x86c
 884:	a08035c0 	sb	zero,13760(a0)
 888:	00000008 	jr	zero
 88c:	0000000c 	syscall
 890:	0000086c 	0x86c
 894:	a08035c8 	sb	zero,13768(a0)
 898:	0000001c 	dmult	zero,zero
Disassembly of section .debug_str:

00000000 <.debug_str>:
   0:	775f6f64 	jalx	d7dbd90 <NESTED_COUNT+0xd7dbc50>
   4:	65746972 	daddiu	s4,t3,26994
   8:	7265735f 	0x7265735f
   c:	006c6169 	0x6c6169
  10:	72657375 	0x72657375
  14:	0066745f 	0x66745f
  18:	6f697270 	ldr	t1,29296(k1)
  1c:	79746972 	0x79746972
  20:	7000745f 	0x7000745f
  24:	746e6972 	jalx	1b9a5c8 <NESTED_COUNT+0x1b9a488>
  28:	72616863 	0x72616863
  2c:	4c530063 	0x4c530063
  30:	49504545 	0x49504545
  34:	4600474e 	ceil.w.s	$f29,$f8
  38:	54535249 	bnel	v0,s3,14960 <NESTED_COUNT+0x14820>
  3c:	4d49545f 	0x4d49545f
  40:	656b0045 	daddiu	t3,t3,69
  44:	6c656e72 	ldr	a1,28274(v1)
  48:	7500632e 	jalx	4018cb8 <NESTED_COUNT+0x4018b78>
  4c:	36746e69 	ori	s4,s3,0x6e69
  50:	00745f34 	teq	v1,s4,0x17c
  54:	726f6873 	0x726f6873
  58:	6e692074 	ldr	t1,8308(s3)
  5c:	61670074 	daddi	a3,t3,116
  60:	67616272 	daddiu	at,k1,25202
  64:	65725f65 	daddiu	s2,t3,24421
  68:	74736967 	jalx	1cda59c <NESTED_COUNT+0x1cda45c>
  6c:	00737265 	0x737265
  70:	6174735f 	daddi	s4,t3,29535
  74:	6c007472 	ldr	zero,29810(zero)
  78:	20676e6f 	addi	a3,v1,28271
  7c:	676e6f6c 	daddiu	t6,k1,28524
  80:	746e6920 	jalx	1b9a480 <NESTED_COUNT+0x1b9a340>
  84:	6f725000 	ldr	s2,20480(k1)
  88:	73736563 	0x73736563
  8c:	61747300 	daddi	s4,t3,29440
  90:	6e5f6b63 	ldr	ra,27491(s2)
  94:	6e007765 	ldr	zero,30565(s0)
  98:	65747365 	daddiu	s4,t3,29541
  9c:	6f635f64 	ldr	v1,24420(k1)
  a0:	00746e75 	0x746e75
  a4:	70617254 	0x70617254
  a8:	6d617266 	ldr	at,29286(t3)
  ac:	72700065 	0x72700065
  b0:	7365636f 	0x7365636f
  b4:	796d0073 	0x796d0073
  b8:	656c6966 	daddiu	t4,t3,26982
  bc:	69727000 	ldl	s2,28672(t3)
  c0:	735f746e 	0x735f746e
  c4:	75746174 	jalx	5d185d0 <NESTED_COUNT+0x5d18490>
  c8:	72700073 	0x72700073
  cc:	5f746e69 	0x5f746e69
  d0:	61636f6c 	daddi	v1,t3,28524
  d4:	6e6f6974 	ldr	t7,26996(s3)
  d8:	696e6900 	ldl	t6,26880(t3)
  dc:	6c616974 	ldr	at,26996(v1)
  e0:	5f657a69 	0x5f657a69
  e4:	00626370 	tge	v1,v0,0x18d
  e8:	70617274 	0x70617274
  ec:	6d617266 	ldr	at,29286(t3)
  f0:	00745f65 	0x745f65
  f4:	434f4c42 	c0	0x14f4c42
  f8:	0044454b 	0x44454b
  fc:	77617073 	jalx	d85c1cc <NESTED_COUNT+0xd85c08c>
 100:	69745f6e 	ldl	s4,24430(t3)
 104:	0073656d 	0x73656d
 108:	61766e69 	daddi	s6,t3,28265
 10c:	5f64696c 	0x5f64696c
 110:	63737973 	daddi	s3,k1,31091
 114:	006c6c61 	0x6c6c61
 118:	20554e47 	addi	s5,v0,20039
 11c:	2e332043 	sltiu	s3,s1,8259
 120:	20362e34 	addi	s6,at,11828
 124:	6e00672d 	ldr	zero,26413(s0)
 128:	0065646f 	0x65646f
 12c:	72616863 	0x72616863
 130:	65746361 	daddiu	s4,t3,25441
 134:	6f640072 	ldr	a0,114(k1)
 138:	6170735f 	daddi	s0,t3,29535
 13c:	70006e77 	0x70006e77
 140:	745f6263 	jalx	17d898c <NESTED_COUNT+0x17d884c>
 144:	6c696600 	ldr	t1,26112(v1)
 148:	6d616e65 	ldr	at,28261(t3)
 14c:	6c620065 	ldr	v0,101(v1)
 150:	696b636f 	ldl	t3,25455(t3)
 154:	6c5f676e 	ldr	ra,26478(v0)
 158:	006b636f 	0x6b636f
 15c:	69736e75 	ldl	s3,28277(t3)
 160:	64656e67 	daddiu	a1,v1,28263
 164:	61686320 	daddi	t0,t3,25376
 168:	74730072 	jalx	1cc01c8 <NESTED_COUNT+0x1cc0088>
 16c:	73757461 	0x73757461
 170:	7000745f 	0x7000745f
 174:	00766572 	tlt	v1,s6,0x195
 178:	5f307063 	0x5f307063
 17c:	00637065 	0x637065
 180:	676e6f6c 	daddiu	t6,k1,28524
 184:	6e6f6c20 	ldr	t7,27680(s3)
 188:	6e752067 	ldr	s5,8295(s3)
 18c:	6e676973 	ldr	a3,26995(s3)
 190:	69206465 	ldl	zero,25701(t1)
 194:	7500746e 	jalx	401d1b8 <NESTED_COUNT+0x401d078>
 198:	33746e69 	andi	s4,k1,0x6e69
 19c:	00745f32 	tlt	v1,s4,0x17c
 1a0:	65646f6e 	daddiu	a0,t3,28526
 1a4:	6e00745f 	ldr	zero,29791(s0)
 1a8:	5f747865 	0x5f747865
 1ac:	63617473 	daddi	at,k1,29811
 1b0:	6f64006b 	ldr	a0,107(k1)
 1b4:	7568735f 	jalx	5a1cd7c <NESTED_COUNT+0x5a1cc3c>
 1b8:	776f6474 	jalx	dbd91d0 <NESTED_COUNT+0xdbd9090>
 1bc:	5845006e 	0x5845006e
 1c0:	44455449 	0x44455449
 1c4:	6f687300 	ldr	t0,29440(k1)
 1c8:	75207472 	jalx	481d1c8 <NESTED_COUNT+0x481d088>
 1cc:	6769736e 	daddiu	t1,k1,29550
 1d0:	2064656e 	addi	a0,v1,25966
 1d4:	00746e69 	0x746e69
 1d8:	72746e65 	0x72746e65
 1dc:	6f705f79 	ldr	s0,24441(k1)
 1e0:	00746e69 	0x746e69
 1e4:	4e52454b 	c3	0x52454b
 1e8:	545f4c45 	bnel	v0,ra,13300 <NESTED_COUNT+0x131c0>
 1ec:	41455248 	0x41455248
 1f0:	6f640044 	ldr	a0,68(k1)
 1f4:	6c696b5f 	ldr	t1,27487(v1)
 1f8:	6e65006c 	ldr	a1,108(s3)
 1fc:	5f797274 	0x5f797274
 200:	6e756f63 	ldr	s5,28515(s3)
 204:	61740074 	daddi	s4,t3,116
 208:	745f6b73 	jalx	17dadcc <NESTED_COUNT+0x17dac8c>
 20c:	5f657079 	0x5f657079
 210:	656e0074 	daddiu	t6,t3,116
 214:	705f7478 	0x705f7478
 218:	2f006469 	sltiu	zero,t8,25705
 21c:	656d6f68 	daddiu	t5,t3,28520
 220:	7574732f 	jalx	5d1ccbc <NESTED_COUNT+0x5d1cb7c>
 224:	2f34702f 	sltiu	s4,t9,28719
 228:	6a6f7270 	ldl	t7,29296(s3)
 22c:	34746365 	ori	s4,v1,0x6365
 230:	6174735f 	daddi	s4,t3,29535
 234:	635f7472 	daddi	ra,k0,29810
 238:	0065646f 	0x65646f
 23c:	74726f70 	jalx	1c9bdc0 <NESTED_COUNT+0x1c9bc80>
 240:	61657200 	daddi	a1,t3,29184
 244:	715f7964 	0x715f7964
 248:	65756575 	daddiu	s5,t3,25973
 24c:	73617400 	0x73617400
 250:	6e695f6b 	ldr	t1,24427(s3)
 254:	6b006f66 	ldl	zero,28518(t8)
 258:	656e7265 	daddiu	t6,t3,29285
 25c:	66745f6c 	daddiu	s4,s3,24428
 260:	30706300 	andi	s0,v1,0x6300
 264:	6461625f 	daddiu	at,v1,25183
 268:	64646176 	daddiu	a0,v1,24950
 26c:	69700072 	ldl	s0,114(t3)
 270:	00745f64 	0x745f64
 274:	44414552 	0x44414552
 278:	61720059 	daddi	s2,t3,89
 27c:	7369646d 	0x7369646d
 280:	69665f6b 	ldl	a2,24427(t3)
 284:	465f646e 	c1	0x5f646e
 288:	00656c69 	0x656c69
 28c:	73676572 	0x73676572
 290:	72696600 	0x72696600
 294:	655f7473 	daddiu	ra,t2,29811
 298:	7972746e 	0x7972746e
 29c:	696e6900 	ldl	t6,26880(t3)
 2a0:	79735f74 	0x79735f74
 2a4:	6c616373 	ldr	at,25459(v1)
 2a8:	7300736c 	0x7300736c
 2ac:	7065656c 	0x7065656c
 2b0:	6961775f 	ldl	at,30559(t3)
 2b4:	75715f74 	jalx	5c57dd0 <NESTED_COUNT+0x5c57c90>
 2b8:	00657565 	0x657565
 2bc:	775f6f64 	jalx	d7dbd90 <NESTED_COUNT+0xd7dbc50>
 2c0:	00746961 	0x746961
 2c4:	434f5250 	c0	0x14f5250
 2c8:	00535345 	0x535345
 2cc:	65736162 	daddiu	s3,t3,24930
 2d0:	73617400 	0x73617400
 2d4:	79745f6b 	0x79745f6b
 2d8:	6e006570 	ldr	zero,25968(s0)
 2dc:	00747865 	0x747865
 2e0:	5f307063 	0x5f307063
 2e4:	73756163 	0x73756163
 2e8:	72700065 	0x72700065
 2ec:	5f746e69 	0x5f746e69
 2f0:	72616863 	0x72616863
 2f4:	69727000 	ldl	s2,28672(t3)
 2f8:	5f66746e 	0x5f66746e
 2fc:	72700064 	0x72700064
 300:	66746e69 	daddiu	s4,s3,28265
 304:	69727000 	ldl	s2,28672(t3)
 308:	5f66746e 	0x5f66746e
 30c:	72700073 	0x72700073
 310:	66746e69 	daddiu	s4,s3,28265
 314:	6100755f 	daddi	zero,t0,30047
 318:	7361696c 	0x7361696c
 31c:	736e755f 	0x736e755f
 320:	656e6769 	daddiu	t6,t3,26473
 324:	72700064 	0x72700064
 328:	66746e69 	daddiu	s4,s3,28265
 32c:	6100785f 	daddi	zero,t0,30815
 330:	6d756772 	ldr	s5,26482(t3)
 334:	00746e65 	0x746e65
 338:	6d726f66 	ldr	s2,28518(t3)
 33c:	70007461 	0x70007461
 340:	746e6972 	jalx	1b9a5c8 <NESTED_COUNT+0x1b9a488>
 344:	00632e66 	0x632e66
 348:	66667562 	daddiu	a2,s3,30050
 34c:	70007265 	0x70007265
 350:	746e6972 	jalx	1b9a5c8 <NESTED_COUNT+0x1b9a488>
 354:	00635f66 	0x635f66
 358:	6e675f5f 	ldr	a3,24415(s3)
 35c:	765f6375 	jalx	97d8dd4 <NESTED_COUNT+0x97d8c94>
 360:	696c5f61 	ldl	t4,24417(t3)
 364:	70007473 	0x70007473
 368:	746e6972 	jalx	1b9a5c8 <NESTED_COUNT+0x1b9a488>
 36c:	00632e6b 	0x632e6b
 370:	756f796d 	jalx	5bde5b4 <NESTED_COUNT+0x5bde474>
 374:	74757074 	jalx	1d5c1d0 <NESTED_COUNT+0x1d5c090>
 378:	61705f00 	daddi	s0,t3,24320
 37c:	0063696e 	0x63696e
 380:	6e697270 	ldr	t1,29296(s3)
 384:	62006b74 	daddi	zero,s0,27508
 388:	6e696765 	ldr	t1,26469(s3)
 38c:	746d6600 	jalx	1b59800 <NESTED_COUNT+0x1b596c0>
 390:	72617453 	0x72617453
 394:	72500074 	0x72500074
 398:	53746e69 	beql	k1,s4,1bd40 <NESTED_COUNT+0x1bc00>
 39c:	6e697274 	ldr	t1,29300(s3)
 3a0:	68740067 	ldl	s4,103(v1)
 3a4:	74614665 	jalx	1851994 <NESTED_COUNT+0x1851854>
 3a8:	734d6c61 	0x734d6c61
 3ac:	656c0067 	daddiu	t4,t3,103
 3b0:	6874676e 	ldl	s4,26478(v1)
 3b4:	69727000 	ldl	s2,28672(t3)
 3b8:	632e746e 	daddi	t6,t9,29806
 3bc:	69725000 	ldl	s2,20480(t3)
 3c0:	6843746e 	ldl	v1,29806(v0)
 3c4:	6c007261 	ldr	zero,29281(zero)
 3c8:	72505f70 	0x72505f70
 3cc:	00746e69 	0x746e69
 3d0:	6e697250 	ldr	t1,29264(s3)
 3d4:	6d754e74 	ldr	s5,20084(t3)
 3d8:	64617000 	daddiu	at,v1,28672
 3dc:	616c0063 	daddi	t4,t3,99
 3e0:	73756a64 	0x73756a64
 3e4:	6f6c0074 	ldr	t4,116(k1)
 3e8:	6c46676e 	ldr	a2,26478(v0)
 3ec:	70006761 	0x70006761
 3f0:	00636572 	tlt	v1,v1,0x195
 3f4:	74646977 	jalx	191a5dc <NESTED_COUNT+0x191a49c>
 3f8:	63610068 	daddi	at,k1,104
 3fc:	6c617574 	ldr	at,30068(v1)
 400:	676e654c 	daddiu	t6,k1,25932
 404:	75006874 	jalx	401a1d0 <NESTED_COUNT+0x401a090>
 408:	73616370 	0x73616370
 40c:	656e0065 	daddiu	t6,t3,101
 410:	616c4667 	daddi	t4,t3,18023
 414:	65670067 	daddiu	a3,t3,103
 418:	69745f74 	ldl	s4,24436(t3)
 41c:	0072656d 	0x72656d
 420:	675f6f64 	daddiu	ra,k0,28516
 424:	69707465 	ldl	s0,29797(t3)
 428:	68630064 	ldl	v1,100(v1)
 42c:	5f6b6365 	0x5f6b6365
 430:	65656c73 	daddiu	a1,t3,27763
 434:	676e6970 	daddiu	t6,k1,26992
 438:	5f6f6400 	0x5f6f6400
 43c:	6c656979 	ldr	a1,27001(v1)
 440:	69740064 	ldl	s4,100(t3)
 444:	655f656d 	daddiu	ra,t2,25965
 448:	7370616c 	0x7370616c
 44c:	6d006465 	ldr	zero,25701(t0)
 450:	696c6c69 	ldl	t4,27753(t3)
 454:	6f636573 	ldr	v1,25971(k1)
 458:	0073646e 	0x73646e
 45c:	5f747570 	0x5f747570
 460:	72727563 	0x72727563
 464:	5f746e65 	0x5f746e65
 468:	6e6e7572 	ldr	t6,30066(s3)
 46c:	00676e69 	0x676e69
 470:	675f6f64 	daddiu	ra,k0,28516
 474:	69747465 	ldl	s4,29797(t3)
 478:	666f656d 	daddiu	t7,s3,25965
 47c:	00796164 	0x796164
 480:	675f6f64 	daddiu	ra,k0,28516
 484:	72707465 	0x72707465
 488:	69726f69 	ldl	s2,28521(t3)
 48c:	64007974 	daddiu	zero,zero,31092
 490:	65735f6f 	daddiu	s3,t3,24431
 494:	69727074 	ldl	s2,28788(t3)
 498:	7469726f 	jalx	1a5c9bc <NESTED_COUNT+0x1a5c87c>
 49c:	63730079 	daddi	s3,k1,121
 4a0:	75646568 	jalx	59195a0 <NESTED_COUNT+0x5919460>
 4a4:	5f72656c 	0x5f72656c
 4a8:	656d6974 	daddiu	t5,t3,26996
 4ac:	63730073 	daddi	s3,k1,115
 4b0:	75646568 	jalx	59195a0 <NESTED_COUNT+0x5919460>
 4b4:	2e72656c 	sltiu	s2,s3,25964
 4b8:	6f640063 	ldr	a0,99(k1)
 4bc:	656c735f 	daddiu	t4,t3,29535
 4c0:	73007065 	0x73007065
 4c4:	64656863 	daddiu	a1,v1,26723
 4c8:	72656c75 	0x72656c75
 4cc:	73696400 	0x73696400
 4d0:	656c6261 	daddiu	t4,t3,25185
 4d4:	756f635f 	jalx	5bd8d7c <NESTED_COUNT+0x5bd8c3c>
 4d8:	7500746e 	jalx	401d1b8 <NESTED_COUNT+0x401d078>
 4dc:	6f6c626e 	ldr	t4,25198(k1)
 4e0:	6c006b63 	ldr	zero,27491(zero)
 4e4:	645f6574 	daddiu	ra,v0,25972
 4e8:	6c646165 	ldr	a0,24933(v1)
 4ec:	00656e69 	0x656e69
 4f0:	655f6f64 	daddiu	ra,t2,28516
 4f4:	00746978 	0x746978
 4f8:	6b636f6c 	ldl	v1,28524(k1)
 4fc:	7163615f 	0x7163615f
 500:	65726975 	daddiu	s2,t3,26997
 504:	6d657300 	ldr	a1,29440(t3)
 508:	6f687061 	ldr	t0,28769(k1)
 50c:	645f6572 	daddiu	ra,v0,25970
 510:	006e776f 	0x6e776f
 514:	6b636f6c 	ldl	v1,28524(k1)
 518:	7300745f 	0x7300745f
 51c:	70616d65 	0x70616d65
 520:	65726f68 	daddiu	s2,t3,28520
 524:	72616200 	0x72616200
 528:	72656972 	0x72656972
 52c:	7600745f 	jalx	801d17c <NESTED_COUNT+0x801d03c>
 530:	65756c61 	daddiu	s5,t3,27745
 534:	6d657300 	ldr	a1,29440(t3)
 538:	6f687061 	ldr	t0,28769(k1)
 53c:	755f6572 	jalx	57d95c8 <NESTED_COUNT+0x57d9488>
 540:	65680070 	daddiu	t0,t3,112
 544:	745f646c 	jalx	17d91b0 <NESTED_COUNT+0x17d9070>
 548:	006b7361 	0x6b7361
 54c:	72726162 	0x72726162
 550:	00726569 	0x726569
 554:	646e6f63 	daddiu	t6,v1,28515
 558:	6f697469 	ldr	t1,29801(k1)
 55c:	00745f6e 	0x745f6e
 560:	646e6f63 	daddiu	t6,v1,28515
 564:	6f697469 	ldr	t1,29801(k1)
 568:	72625f6e 	0x72625f6e
 56c:	6364616f 	daddi	a0,k1,24943
 570:	00747361 	0x747361
 574:	616d6573 	daddi	t5,t3,25971
 578:	726f6870 	0x726f6870
 57c:	6e695f65 	ldr	t1,24421(s3)
 580:	6c007469 	ldr	zero,29801(zero)
 584:	5f6b636f 	0x5f6b636f
 588:	74696e69 	jalx	1a5b9a4 <NESTED_COUNT+0x1a5b864>
 58c:	6e797300 	ldr	t9,29440(s3)
 590:	00632e63 	0x632e63
 594:	616d6573 	daddi	t5,t3,25971
 598:	726f6870 	0x726f6870
 59c:	00745f65 	0x745f65
 5a0:	72726162 	0x72726162
 5a4:	5f726569 	0x5f726569
 5a8:	74696e69 	jalx	1a5b9a4 <NESTED_COUNT+0x1a5b864>
 5ac:	72616200 	0x72616200
 5b0:	72656972 	0x72656972
 5b4:	6961775f 	ldl	at,30559(t3)
 5b8:	6f630074 	ldr	v1,116(k1)
 5bc:	7469646e 	jalx	1a591b8 <NESTED_COUNT+0x1a59078>
 5c0:	5f6e6f69 	0x5f6e6f69
 5c4:	74696e69 	jalx	1a5b9a4 <NESTED_COUNT+0x1a5b864>
 5c8:	636f6c00 	daddi	t7,k1,27648
 5cc:	65725f6b 	daddiu	s2,t3,24427
 5d0:	7361656c 	0x7361656c
 5d4:	6f630065 	ldr	v1,101(k1)
 5d8:	7469646e 	jalx	1a591b8 <NESTED_COUNT+0x1a59078>
 5dc:	006e6f69 	0x6e6f69
 5e0:	646e6f63 	daddiu	t6,v1,28515
 5e4:	6f697469 	ldr	t1,29801(k1)
 5e8:	61775f6e 	daddi	s7,t3,24430
 5ec:	63007469 	daddi	zero,t8,29801
 5f0:	69646e6f 	ldl	a0,28271(t3)
 5f4:	6e6f6974 	ldr	t7,26996(s3)
 5f8:	6769735f 	daddiu	t1,k1,29535
 5fc:	006c616e 	0x6c616e
 600:	4f4c4e55 	c3	0x14c4e55
 604:	44454b43 	0x44454b43
 608:	7a697300 	0x7a697300
 60c:	75710065 	jalx	5c40194 <NESTED_COUNT+0x5c40054>
 610:	6d75726f 	ldr	s5,29295(t3)
 614:	69727000 	ldl	s2,28672(t3)
 618:	635f746e 	daddi	ra,k0,29806
 61c:	726f6c6f 	0x726f6c6f
 620:	69727000 	ldl	s2,28672(t3)
 624:	7473746e 	jalx	1cdd1b8 <NESTED_COUNT+0x1cdd078>
 628:	74750072 	jalx	1d401c8 <NESTED_COUNT+0x1d40088>
 62c:	632e6c69 	daddi	t6,t9,27753
 630:	67656e00 	daddiu	a1,k1,28160
 634:	616c665f 	daddi	t4,t3,26207
 638:	72700067 	0x72700067
 63c:	5f746e69 	0x5f746e69
 640:	00746e69 	0x746e69
 644:	61656c63 	daddi	a1,t3,27747
 648:	63735f72 	daddi	s3,k1,24434
 64c:	6e656572 	ldr	a1,25970(s3)
 650:	78616d00 	0x78616d00
 654:	7a620078 	0x7a620078
 658:	006f7265 	0x6f7265
 65c:	706d6574 	0x706d6574
 660:	616d0032 	daddi	t5,t3,50
 664:	70007978 	0x70007978
 668:	746e6972 	jalx	1b9a5c8 <NESTED_COUNT+0x1b9a488>
 66c:	7274735f 	0x7274735f
 670:	6f746900 	ldr	s4,26880(k1)
 674:	74610061 	jalx	1840184 <NESTED_COUNT+0x1840044>
 678:	6400696f 	daddiu	zero,zero,26991
 67c:	79616c65 	0x79616c65
 680:	696c0073 	ldl	t4,115(t3)
 684:	615f656e 	daddi	ra,t2,25966
 688:	62006c6c 	daddi	zero,s0,27756
 68c:	79706f63 	0x79706f63
 690:	76657200 	jalx	995c800 <NESTED_COUNT+0x995c6c0>
 694:	65737265 	daddiu	s3,t3,29285
 698:	65657300 	daddiu	a1,t3,29440
 69c:	74730064 	jalx	1cc0190 <NESTED_COUNT+0x1cc0050>
 6a0:	6e656c72 	ldr	a1,27762(s3)
 6a4:	6e696d00 	ldr	t1,27904(s3)
 6a8:	61730078 	daddi	s3,t3,120
 6ac:	735f656d 	0x735f656d
 6b0:	6e697274 	ldr	t1,29300(s3)
 6b4:	72700067 	0x72700067
 6b8:	5f746e69 	0x5f746e69
 6bc:	00786568 	0x786568
 6c0:	646e6172 	daddiu	t6,v1,24946
 6c4:	6c61765f 	ldr	at,30303(v1)
 6c8:	6e696d00 	ldr	t1,27904(s3)
 6cc:	65740079 	daddiu	s4,t3,121
 6d0:	0031706d 	0x31706d
 6d4:	74736564 	jalx	1cd9590 <NESTED_COUNT+0x1cd9450>
 6d8:	69006e69 	ldl	zero,28265(t0)
 6dc:	65686f74 	daddiu	t0,t3,28532
 6e0:	72730078 	0x72730078
 6e4:	00646e61 	0x646e61
 6e8:	61657261 	daddi	a1,t3,29281
 6ec:	6e617200 	ldr	at,29184(s3)
 6f0:	74735f64 	jalx	1cd7d90 <NESTED_COUNT+0x1cd7c50>
 6f4:	69007065 	ldl	zero,28773(t0)
 6f8:	6d655f73 	ldr	a1,24435(t3)
 6fc:	00797470 	tge	v1,t9,0x1d1
 700:	72657469 	0x72657469
 704:	65757100 	daddiu	s5,t3,28928
 708:	695f6575 	ldl	ra,25973(t2)
 70c:	0074696e 	0x74696e
 710:	6b656570 	ldl	a1,25968(k1)
 714:	716e6500 	0x716e6500
 718:	65756575 	daddiu	s5,t3,25973
 71c:	65757100 	daddiu	s5,t3,28928
 720:	632e6575 	daddi	t6,t9,25973
 724:	65746900 	daddiu	s4,t3,26880
 728:	6564006d 	daddiu	a0,t3,109
 72c:	75657571 	jalx	595d5c4 <NESTED_COUNT+0x595d484>
 730:	6f6e0065 	ldr	t6,101(k1)
 734:	6c5f6564 	ldr	ra,25956(v0)
 738:	65006574 	daddiu	zero,t0,25972
 73c:	6575716e 	daddiu	s5,t3,29038
 740:	735f6575 	0x735f6575
 744:	0074726f 	0x74726f
 748:	5f746573 	0x5f746573
 74c:	5f307063 	0x5f307063
 750:	74617473 	jalx	185d1cc <NESTED_COUNT+0x185d08c>
 754:	72007375 	0x72007375
 758:	765f7465 	jalx	97dd194 <NESTED_COUNT+0x97dd054>
 75c:	69006c61 	ldl	zero,27745(t0)
 760:	5f74696e 	0x5f74696e
 764:	65746e69 	daddiu	s4,t3,28265
 768:	70757272 	0x70757272
 76c:	63007374 	daddi	zero,t8,29556
 770:	6d69735f 	ldr	t1,29535(t3)
 774:	5f656c70 	0x5f656c70
 778:	646e6168 	daddiu	t6,v1,24936
 77c:	0072656c 	0x72656c
 780:	32677261 	andi	a3,s3,0x7261
 784:	67726100 	daddiu	s2,k1,24832
 788:	6e690033 	ldr	t1,51(s3)
 78c:	72726574 	0x72726574
 790:	2e747075 	sltiu	s4,s3,28789
 794:	79730063 	0x79730063
 798:	6d657473 	ldr	a1,29811(t3)
 79c:	6c61635f 	ldr	at,25439(v1)
 7a0:	65685f6c 	daddiu	t0,t3,24428
 7a4:	7265706c 	0x7265706c
 7a8:	6d697400 	ldr	t1,29696(t3)
 7ac:	695f7265 	ldl	ra,29285(t2)
 7b0:	69007172 	ldl	zero,29042(t0)
 7b4:	745f7172 	jalx	17dc5c8 <NESTED_COUNT+0x17dc488>
 7b8:	73656d69 	0x73656d69
 7bc:	5f706900 	0x5f706900
 7c0:	72756f73 	0x72756f73
 7c4:	67006563 	daddiu	zero,t8,25955
 7c8:	635f7465 	daddi	ra,k0,29797
 7cc:	735f3070 	0x735f3070
 7d0:	75746174 	jalx	5d185d0 <NESTED_COUNT+0x5d18490>
 7d4:	6e690073 	ldr	t1,115(s3)
 7d8:	72726574 	0x72726574
 7dc:	5f747075 	0x5f747075
 7e0:	646e6168 	daddiu	t6,v1,24936
 7e4:	7372656c 	0x7372656c
 7e8:	63786500 	daddi	t8,k1,25856
 7ec:	646f635f 	daddiu	t7,v1,25439
 7f0:	72610065 	0x72610065
 7f4:	72003167 	0x72003167
 7f8:	69646d61 	ldl	a0,28001(t3)
 7fc:	632e6b73 	daddi	t6,t9,27507
 800:	6d617200 	ldr	at,29184(t3)
 804:	6b736964 	ldl	s3,26980(k1)
 808:	6e69665f 	ldr	t1,26207(s3)
 80c:	65730064 	daddiu	s3,t3,100
 810:	775f646e 	jalx	d7d91b8 <NESTED_COUNT+0xd7d9078>
 814:	5f746961 	0x5f746961
 818:	75657571 	jalx	595d5c4 <NESTED_COUNT+0x595d484>
 81c:	72770065 	0x72770065
 820:	5f657469 	0x5f657469
 824:	63616c70 	daddi	at,k1,27760
 828:	736d0065 	0x736d0065
 82c:	6f635f67 	ldr	v1,24423(k1)
 830:	00746e75 	0x746e75
 834:	5f657375 	0x5f657375
 838:	6e756f63 	ldr	s5,28515(s3)
 83c:	626d0074 	daddi	t5,s3,116
 840:	632e786f 	daddi	t6,t9,30831
 844:	5f6f6400 	0x5f6f6400
 848:	786f626d 	0x786f626d
 84c:	6365725f 	daddi	a1,k1,29279
 850:	654d0076 	daddiu	t5,t2,118
 854:	67617373 	daddiu	at,k1,29555
 858:	786f4265 	0x786f4265
 85c:	5f6f6400 	0x5f6f6400
 860:	786f626d 	0x786f626d
 864:	5f73695f 	0x5f73695f
 868:	6c6c7566 	ldr	t4,30054(v1)
 86c:	63657200 	daddi	a1,k1,29184
 870:	61775f76 	daddi	s7,t3,24438
 874:	715f7469 	0x715f7469
 878:	65756575 	daddiu	s5,t3,25973
 87c:	61657200 	daddi	a1,t3,29184
 880:	6c705f64 	ldr	s0,24420(v1)
 884:	00656361 	0x656361
 888:	6c69616d 	ldr	t1,24941(v1)
 88c:	786f625f 	0x786f625f
 890:	696e6900 	ldl	t6,26880(t3)
 894:	626d5f74 	daddi	t5,s3,24436
 898:	6400786f 	daddiu	zero,zero,30831
 89c:	626d5f6f 	daddi	t5,s3,24431
 8a0:	735f786f 	0x735f786f
 8a4:	00646e65 	0x646e65
 8a8:	786f626d 	0x786f626d
 8ac:	4200745f 	c0	0x745f
 8b0:	6f4c786f 	ldr	t4,30831(k0)
 8b4:	64006b63 	daddiu	zero,zero,27491
 8b8:	626d5f6f 	daddi	t5,s3,24431
 8bc:	6f5f786f 	ldr	ra,30831(k0)
 8c0:	006e6570 	tge	v1,t6,0x195
 8c4:	7373654d 	0x7373654d
 8c8:	00656761 	0x656761
 8cc:	7479626e 	jalx	1e589b8 <NESTED_COUNT+0x1e58878>
 8d0:	64007365 	daddiu	zero,zero,29541
 8d4:	626d5f6f 	daddi	t5,s3,24431
 8d8:	635f786f 	daddi	ra,k0,30831
 8dc:	65736f6c 	daddiu	s3,t3,28524
 8e0:	73654d00 	0x73654d00
 8e4:	65676173 	daddiu	a3,t3,24947
 8e8:	65786f42 	daddiu	t8,t3,28482
 8ec:	6966006e 	ldl	a2,110(t3)
 8f0:	2e73656c 	sltiu	s3,s3,25964
 8f4:	65670063 	daddiu	a3,t3,99
 8f8:	756e5f74 	jalx	5b97dd0 <NESTED_COUNT+0x5b97c90>
 8fc:	69665f6d 	ldl	a2,24429(t3)
 900:	0073656c 	0x73656c
 904:	5f746567 	0x5f746567
 908:	5f68746e 	0x5f68746e
 90c:	656c6966 	daddiu	t4,t3,26982
	...
Disassembly of section .comment:

00000000 <.comment>:
   0:	43434700 	c0	0x1434700
   4:	4728203a 	c1	0x128203a
   8:	2029554e 	addi	t1,at,21838
   c:	2e342e33 	sltiu	s4,s1,11827
  10:	47000036 	c1	0x1000036
  14:	203a4343 	addi	k0,at,17219
  18:	554e4728 	bnel	t2,t6,11cbc <NESTED_COUNT+0x11b7c>
  1c:	2e332029 	sltiu	s3,s1,8233
  20:	00362e34 	teq	at,s6,0xb8
  24:	43434700 	c0	0x1434700
  28:	4728203a 	c1	0x128203a
  2c:	2029554e 	addi	t1,at,21838
  30:	2e342e33 	sltiu	s4,s1,11827
  34:	47000036 	c1	0x1000036
  38:	203a4343 	addi	k0,at,17219
  3c:	554e4728 	bnel	t2,t6,11ce0 <NESTED_COUNT+0x11ba0>
  40:	2e332029 	sltiu	s3,s1,8233
  44:	00362e34 	teq	at,s6,0xb8
  48:	43434700 	c0	0x1434700
  4c:	4728203a 	c1	0x128203a
  50:	2029554e 	addi	t1,at,21838
  54:	2e342e33 	sltiu	s4,s1,11827
  58:	47000036 	c1	0x1000036
  5c:	203a4343 	addi	k0,at,17219
  60:	554e4728 	bnel	t2,t6,11d04 <NESTED_COUNT+0x11bc4>
  64:	2e332029 	sltiu	s3,s1,8233
  68:	00362e34 	teq	at,s6,0xb8
  6c:	43434700 	c0	0x1434700
  70:	4728203a 	c1	0x128203a
  74:	2029554e 	addi	t1,at,21838
  78:	2e342e33 	sltiu	s4,s1,11827
  7c:	47000036 	c1	0x1000036
  80:	203a4343 	addi	k0,at,17219
  84:	554e4728 	bnel	t2,t6,11d28 <NESTED_COUNT+0x11be8>
  88:	2e332029 	sltiu	s3,s1,8233
  8c:	00362e34 	teq	at,s6,0xb8
  90:	43434700 	c0	0x1434700
  94:	4728203a 	c1	0x128203a
  98:	2029554e 	addi	t1,at,21838
  9c:	2e342e33 	sltiu	s4,s1,11827
  a0:	47000036 	c1	0x1000036
  a4:	203a4343 	addi	k0,at,17219
  a8:	554e4728 	bnel	t2,t6,11d4c <NESTED_COUNT+0x11c0c>
  ac:	2e332029 	sltiu	s3,s1,8233
  b0:	00362e34 	teq	at,s6,0xb8
  b4:	43434700 	c0	0x1434700
  b8:	4728203a 	c1	0x128203a
  bc:	2029554e 	addi	t1,at,21838
  c0:	2e342e33 	sltiu	s4,s1,11827
  c4:	47000036 	c1	0x1000036
  c8:	203a4343 	addi	k0,at,17219
  cc:	554e4728 	bnel	t2,t6,11d70 <NESTED_COUNT+0x11c30>
  d0:	2e332029 	sltiu	s3,s1,8233
  d4:	00362e34 	teq	at,s6,0xb8
  d8:	43434700 	c0	0x1434700
  dc:	4728203a 	c1	0x128203a
  e0:	2029554e 	addi	t1,at,21838
  e4:	2e342e33 	sltiu	s4,s1,11827
  e8:	47000036 	c1	0x1000036
  ec:	203a4343 	addi	k0,at,17219
  f0:	554e4728 	bnel	t2,t6,11d94 <NESTED_COUNT+0x11c54>
  f4:	2e332029 	sltiu	s3,s1,8233
  f8:	00362e34 	teq	at,s6,0xb8
  fc:	43434700 	c0	0x1434700
 100:	4728203a 	c1	0x128203a
 104:	2029554e 	addi	t1,at,21838
 108:	2e342e33 	sltiu	s4,s1,11827
 10c:	47000036 	c1	0x1000036
 110:	203a4343 	addi	k0,at,17219
 114:	554e4728 	bnel	t2,t6,11db8 <NESTED_COUNT+0x11c78>
 118:	2e332029 	sltiu	s3,s1,8233
 11c:	00362e34 	teq	at,s6,0xb8
Disassembly of section .debug_line.1:

00000000 <.debug_line.1>:
   0:	000000c3 	sra	zero,zero,0x3
   4:	001e0002 	srl	zero,s8,0x0
   8:	01010000 	0x1010000
   c:	000d0efb 	dsra	at,t5,0x1b
  10:	01010101 	0x1010101
  14:	01000000 	0x1000000
  18:	00010000 	sll	zero,at,0x0
  1c:	72746e65 	0x72746e65
  20:	00532e79 	0x532e79
  24:	00000000 	nop
  28:	50020500 	beql	zero,v0,142c <NESTED_COUNT+0x12ec>
  2c:	03a0800b 	0x3a0800b
  30:	020101de 	0x20101de
  34:	831301f0 	lb	s3,496(t8)
  38:	cc02e508 	lwc3	$2,-6904(zero)
  3c:	3d081301 	0x3d081301
  40:	85838587 	lh	v1,-31353(t4)
  44:	4c4b834b 	0x4c4b834b
  48:	034b8386 	0x34b8386
  4c:	7608820a 	jalx	8220828 <NESTED_COUNT+0x82206e8>
  50:	4b834b4b 	c2	0x1834b4b
  54:	3e088a4b 	0x3e088a4b
  58:	01dc024e 	0x1dc024e
  5c:	4b4c4c14 	c2	0x14c4c14
  60:	4b4b4c4b 	c2	0x14b4c4b
  64:	4b844c4b 	c2	0x1844c4b
  68:	084c4b4b 	j	1312d2c <NESTED_COUNT+0x1312bec>
  6c:	01c802e5 	0x1c802e5
  70:	dc028613 	ld	v0,-31213(zero)
  74:	4b4b1401 	c2	0x14b1401
  78:	08844c4b 	j	211312c <NESTED_COUNT+0x2112fec>
  7c:	01c802e5 	0x1c802e5
  80:	dc028613 	ld	v0,-31213(zero)
  84:	e5081301 	swc1	$f8,4865(t0)
  88:	4c4b4b4b 	0x4c4b4b4b
  8c:	4b85834c 	c2	0x185834c
  90:	4b4b4b4b 	c2	0x14b4b4b
  94:	4b4b4b4b 	c2	0x14b4b4b
  98:	02e5084b 	0x2e5084b
  9c:	861301c8 	lh	s3,456(s0)
  a0:	0c03e508 	jal	f9420 <NESTED_COUNT+0xf92e0>
  a4:	4b864b4a 	c2	0x1864b4a
  a8:	08750887 	j	1d4221c <NESTED_COUNT+0x1d420dc>
  ac:	e50886e5 	swc1	$f8,-31003(t0)
  b0:	08873d08 	j	21cf420 <NESTED_COUNT+0x21cf2e0>
  b4:	85e50875 	lh	a1,2165(t7)
  b8:	e5087508 	swc1	$f8,29960(t0)
  bc:	08750885 	j	1d42214 <NESTED_COUNT+0x1d420d4>
  c0:	080286e5 	j	a1b94 <NESTED_COUNT+0xa1a54>
  c4:	Address 0x00000000000000c4 is out of bounds.

Disassembly of section .debug_info.2:

00000000 <.debug_info.2>:
   0:	0000004b 	0x4b
   4:	00000002 	srl	zero,zero,0x0
   8:	01040000 	0x1040000
   c:	00000000 	nop
  10:	a0800b50 	sb	zero,2896(a0)
  14:	a080158c 	sb	zero,5516(a0)
  18:	72746e65 	0x72746e65
  1c:	00532e79 	0x532e79
  20:	6d6f682f 	ldr	t7,26671(t3)
  24:	74732f65 	jalx	1ccbd94 <NESTED_COUNT+0x1ccbc54>
  28:	34702f75 	ori	s0,v1,0x2f75
  2c:	6f72702f 	ldr	s2,28719(k1)
  30:	7463656a 	jalx	18d95a8 <NESTED_COUNT+0x18d9468>
  34:	74735f34 	jalx	1cd7cd0 <NESTED_COUNT+0x1cd7b90>
  38:	5f747261 	0x5f747261
  3c:	65646f63 	daddiu	a0,t3,28515
  40:	554e4700 	bnel	t2,t6,11c44 <NESTED_COUNT+0x11b04>
  44:	20534120 	addi	s3,v0,16672
  48:	37312e32 	ori	s1,t9,0x2e32
  4c:	Address 0x000000000000004c is out of bounds.

Disassembly of section .debug_abbrev.3:

00000000 <.debug_abbrev.3>:
   0:	10001101 	b	4408 <NESTED_COUNT+0x42c8>
   4:	12011106 	beq	s0,at,4420 <NESTED_COUNT+0x42e0>
   8:	1b080301 	0x1b080301
   c:	13082508 	beq	t8,t0,9430 <NESTED_COUNT+0x92f0>
  10:	00000005 	0x5
Disassembly of section .debug_abbrev.4:

00000000 <.debug_abbrev.4>:
   0:	10011101 	beq	zero,at,4408 <NESTED_COUNT+0x42c8>
   4:	11011206 	beq	t0,at,4820 <NESTED_COUNT+0x46e0>
   8:	130e2501 	beq	t8,t6,9410 <NESTED_COUNT+0x92d0>
   c:	1b0e030b 	0x1b0e030b
  10:	0200000e 	0x200000e
  14:	0e030016 	jal	80c0058 <NESTED_COUNT+0x80bff18>
  18:	0b3b0b3a 	j	cec2ce8 <NESTED_COUNT+0xcec2ba8>
  1c:	00001349 	0x1349
  20:	03002403 	0x3002403
  24:	3e0b0b0e 	0x3e0b0b0e
  28:	0400000b 	bltz	zero,58 <KERNEL+0x50>
  2c:	1301012e 	beq	t8,at,4e8 <NESTED_COUNT+0x3a8>
  30:	0b3a0e03 	j	ce8380c <NESTED_COUNT+0xce836cc>
  34:	0c270b3b 	jal	9c2cec <NESTED_COUNT+0x9c2bac>
  38:	01120111 	0x1120111
  3c:	40064081 	0x40064081
  40:	0500000a 	bltz	t0,6c <KERNEL+0x64>
  44:	0e030005 	jal	80c0014 <NESTED_COUNT+0x80bfed4>
  48:	0b3b0b3a 	j	cec2ce8 <NESTED_COUNT+0xcec2ba8>
  4c:	0a021349 	j	8084d24 <NESTED_COUNT+0x8084be4>
  50:	05060000 	0x5060000
  54:	3a080300 	xori	t0,s0,0x300
  58:	490b3b0b 	0x490b3b0b
  5c:	000a0213 	0xa0213
  60:	010b0700 	0x10b0700
  64:	00000655 	0x655
  68:	3f012e08 	0x3f012e08
  6c:	3a0e030c 	xori	t6,s0,0x30c
  70:	490b3b0b 	0x490b3b0b
  74:	000c3c13 	0xc3c13
  78:	00180900 	sll	at,t8,0x4
  7c:	0f0a0000 	jal	c280000 <NESTED_COUNT+0xc27fec0>
  80:	490b0b00 	0x490b0b00
  84:	0b000013 	j	c00004c <NESTED_COUNT+0xbffff0c>
  88:	08030024 	j	c0090 <NESTED_COUNT+0xbff50>
  8c:	0b3e0b0b 	j	cf82c2c <NESTED_COUNT+0xcf82aec>
  90:	340c0000 	li	t4,0x0
  94:	3a0e0300 	xori	t6,s0,0x300
  98:	490b3b0b 	0x490b3b0b
  9c:	000a0213 	0xa0213
  a0:	00340d00 	0x340d00
  a4:	0b3a0803 	j	ce8200c <NESTED_COUNT+0xce81ecc>
  a8:	13490b3b 	beq	k0,t1,2d98 <NESTED_COUNT+0x2c58>
  ac:	00000a02 	srl	at,zero,0x8
  b0:	0101010e 	0x101010e
  b4:	00134913 	0x134913
  b8:	00210f00 	0x210f00
  bc:	0b2f1349 	j	cbc4d24 <NESTED_COUNT+0xcbc4be4>
  c0:	2e100000 	sltiu	s0,s0,0
  c4:	3f130101 	0x3f130101
  c8:	3a0e030c 	xori	t6,s0,0x30c
  cc:	270b3b0b 	addiu	t3,t8,15115
  d0:	1201110c 	beq	s0,at,4504 <NESTED_COUNT+0x43c4>
  d4:	06408101 	bltz	s2,fffe04dc <__bbs_end+0x5f7c8634>
  d8:	00000a40 	sll	at,zero,0x9
  dc:	01011d11 	0x1011d11
  e0:	11133113 	beq	t0,s3,c530 <NESTED_COUNT+0xc3f0>
  e4:	00011201 	0x11201
  e8:	00051200 	sll	v0,a1,0x8
  ec:	00001331 	tgeu	zero,zero,0x4c
  f0:	31000513 	andi	zero,t0,0x513
  f4:	000a0213 	0xa0213
  f8:	010b1400 	0x10b1400
  fc:	01120111 	0x1120111
 100:	34150000 	li	s5,0x0
 104:	02133100 	0x2133100
 108:	1600000a 	bnez	s0,134 <USER+0x90>
 10c:	1331011d 	beq	t9,s1,584 <NESTED_COUNT+0x444>
 110:	01120111 	0x1120111
 114:	2e170000 	sltiu	s7,s0,0
 118:	03130101 	0x3130101
 11c:	3b0b3a0e 	xori	t3,t8,0x3a0e
 120:	200c270b 	addi	t4,zero,9995
 124:	1800000b 	blez	zero,154 <NESTED_COUNT+0x14>
 128:	0e030005 	jal	80c0014 <NESTED_COUNT+0x80bfed4>
 12c:	0b3b0b3a 	j	cec2ce8 <NESTED_COUNT+0xcec2ba8>
 130:	00001349 	0x1349
 134:	03000519 	0x3000519
 138:	3b0b3a08 	xori	t3,t8,0x3a08
 13c:	0013490b 	0x13490b
 140:	00341a00 	0x341a00
 144:	0b3a0803 	j	ce8200c <NESTED_COUNT+0xce81ecc>
 148:	13490b3b 	beq	k0,t1,2e38 <NESTED_COUNT+0x2cf8>
 14c:	2e1b0000 	sltiu	k1,s0,0
 150:	3a0e0301 	xori	t6,s0,0x301
 154:	270b3b0b 	addiu	t3,t8,15115
 158:	000b200c 	syscall	0x2c80
	...
Disassembly of section .debug_info.5:

00000000 <.debug_info.5>:
   0:	00000292 	0x292
   4:	00000002 	srl	zero,zero,0x0
   8:	01040000 	0x1040000
   c:	00000000 	nop
  10:	a0801960 	sb	zero,6496(a0)
  14:	a0801590 	sb	zero,5520(a0)
  18:	00000118 	0x118
  1c:	00033f01 	0x33f01
  20:	00021b00 	sll	v1,v0,0xc
  24:	03170200 	0x3170200
  28:	57010000 	bnel	t8,at,2c <KERNEL+0x24>
  2c:	00000030 	tge	zero,zero
  30:	00018a03 	sra	s1,at,0x8
  34:	04070400 	0x4070400
  38:	0000008c 	syscall	0x2
  3c:	0000034f 	0x34f
  40:	90010701 	lbu	at,1793(zero)
  44:	7ca08015 	0x7ca08015
  48:	6ca08016 	ldr	zero,-32746(a1)
  4c:	01000001 	0x1000001
  50:	04eb056d 	tltiu	a3,1389
  54:	06010000 	bgez	s0,58 <KERNEL+0x50>
  58:	0000008c 	syscall	0x2
  5c:	63066101 	daddi	a2,t8,24833
  60:	01006c6f 	0x1006c6f
  64:	00008c06 	0x8c06
  68:	06600100 	bltz	s3,46c <NESTED_COUNT+0x32c>
  6c:	06010063 	bgez	s0,1fc <NESTED_COUNT+0xbc>
  70:	00000099 	0x99
  74:	00075601 	0x75601
  78:	08000000 	j	0 <KERNEL-0x8>
  7c:	0002ea01 	0x2ea01
  80:	92200100 	lbu	zero,256(s1)
  84:	01000000 	0x1000000
  88:	00000009 	jalr	zero,zero
  8c:	0092040a 	0x92040a
  90:	690b0000 	ldl	t3,0(t0)
  94:	0400746e 	bltz	zero,1d250 <NESTED_COUNT+0x1d110>
  98:	01650305 	0x1650305
  9c:	06010000 	bgez	s0,a0 <STACK+0x2c>
  a0:	0000f904 	0xf904
  a4:	00030e00 	sll	at,v1,0x18
  a8:	01260100 	0x1260100
  ac:	a080167c 	sb	zero,5756(a0)
  b0:	a0801714 	sb	zero,5908(a0)
  b4:	0000018c 	syscall	0x6
  b8:	eb056d01 	swc2	$5,27905(t8)
  bc:	01000004 	sllv	zero,zero,t0
  c0:	00008c25 	0x8c25
  c4:	06620100 	bltzl	s3,4c8 <NESTED_COUNT+0x388>
  c8:	006c6f63 	0x6c6f63
  cc:	008c2501 	0x8c2501
  d0:	61010000 	daddi	at,t0,0
  d4:	01007506 	0x1007506
  d8:	0000f925 	0xf925
  dc:	0c560100 	jal	1580400 <NESTED_COUNT+0x15802c0>
  e0:	00000348 	0x348
  e4:	01002701 	0x1002701
  e8:	91020000 	lbu	v0,0(t0)
  ec:	00700d10 	0x700d10
  f0:	01172801 	0x1172801
  f4:	60010000 	daddi	at,zero,0
  f8:	018a0300 	0x18a0300
  fc:	07040000 	0x7040000
 100:	0001100e 	0x1100e
 104:	00009900 	sll	s3,zero,0x4
 108:	01100f00 	0x1100f00
 10c:	000f0000 	sll	zero,t7,0x0
 110:	00018a03 	sra	s1,at,0x8
 114:	0a070400 	j	81c1000 <NESTED_COUNT+0x81c0ec0>
 118:	00009904 	0x9904
 11c:	01fa1000 	0x1fa1000
 120:	fe010000 	sd	at,0(s0)
 124:	01000002 	0x1000002
 128:	1714015a 	bne	t8,s4,694 <NESTED_COUNT+0x554>
 12c:	1960a080 	blez	t3,fffe8330 <__bbs_end+0x5f7d0488>
 130:	01b0a080 	0x1b0a080
 134:	6d010000 	ldr	at,0(t0)
 138:	0004eb05 	0x4eb05
 13c:	92590100 	lbu	t9,256(s2)
 140:	02000000 	0x2000000
 144:	63063891 	daddi	a2,t8,14481
 148:	01006c6f 	0x1006c6f
 14c:	00009259 	0x9259
 150:	3c910200 	0x3c910200
 154:	00033805 	0x33805
 158:	17590100 	bne	k0,t9,55c <NESTED_COUNT+0x41c>
 15c:	03000001 	0x3000001
 160:	0900c091 	j	4030244 <NESTED_COUNT+0x4030104>
 164:	00032f0c 	syscall	0xcbc
 168:	fa5b0100 	sdc2	$27,256(s2)
 16c:	01000001 	0x1000001
 170:	00700d63 	0x700d63
 174:	01175c01 	0x1175c01
 178:	61010000 	daddi	at,t0,0
 17c:	00019d11 	0x19d11
 180:	00020000 	sll	zero,v0,0x0
 184:	80185c00 	lb	t8,23552(zero)
 188:	801870a0 	lb	t8,28832(zero)
 18c:	020d12a0 	0x20d12a0
 190:	18120000 	0x18120000
 194:	12000002 	beqz	s0,1a0 <NESTED_COUNT+0x60>
 198:	00000223 	0x223
 19c:	01d81100 	0x1d81100
 1a0:	022d0000 	0x22d0000
 1a4:	18800000 	blez	a0,1a8 <NESTED_COUNT+0x68>
 1a8:	18d4a080 	0x18d4a080
 1ac:	3a13a080 	xori	s3,s0,0xa080
 1b0:	01000002 	0x1000002
 1b4:	02451264 	0x2451264
 1b8:	50120000 	beql	zero,s2,1bc <NESTED_COUNT+0x7c>
 1bc:	14000002 	bnez	zero,1c8 <NESTED_COUNT+0x88>
 1c0:	a0801888 	sb	zero,6280(a0)
 1c4:	a08018d4 	sb	zero,6356(a0)
 1c8:	00025915 	0x25915
 1cc:	15600100 	bnez	t3,5d0 <NESTED_COUNT+0x490>
 1d0:	00000262 	0x262
 1d4:	00005601 	0x5601
 1d8:	00026c16 	0x26c16
 1dc:	8018d400 	lb	t8,-11264(zero)
 1e0:	801908a0 	lb	t9,2208(zero)
 1e4:	027513a0 	0x27513a0
 1e8:	62010000 	daddi	at,s0,0
 1ec:	00028012 	0x28012
 1f0:	028b1300 	0x28b1300
 1f4:	60010000 	daddi	at,zero,0
 1f8:	040a0000 	tlti	zero,0
 1fc:	00000025 	move	zero,zero
 200:	00022d17 	0x22d17
 204:	0002f500 	sll	s8,v0,0x14
 208:	01360100 	0x1360100
 20c:	04eb1801 	tltiu	a3,6145
 210:	35010000 	ori	at,t0,0x0
 214:	0000008c 	syscall	0x2
 218:	6c6f6319 	ldr	t7,25369(v1)
 21c:	8c350100 	lw	s5,256(at)
 220:	19000000 	blez	t0,224 <NESTED_COUNT+0xe4>
 224:	35010064 	ori	at,t0,0x64
 228:	00000092 	0x92
 22c:	026c1700 	0x26c1700
 230:	03260000 	0x3260000
 234:	47010000 	c1	0x1010000
 238:	eb180101 	swc2	$24,257(t8)
 23c:	01000004 	sllv	zero,zero,t0
 240:	00008c46 	0x8c46
 244:	6f631900 	ldr	v1,6400(k1)
 248:	4601006c 	c1	0x1006c
 24c:	0000008c 	syscall	0x2
 250:	01007819 	0x1007819
 254:	0000f946 	0xf946
 258:	00691a00 	0x691a00
 25c:	00924801 	0x924801
 260:	631a0000 	daddi	k0,t8,0
 264:	99490100 	lwr	t1,256(t2)
 268:	00000000 	nop
 26c:	0003051b 	0x3051b
 270:	01400100 	0x1400100
 274:	04eb1801 	tltiu	a3,6145
 278:	3f010000 	0x3f010000
 27c:	0000008c 	syscall	0x2
 280:	6c6f6319 	ldr	t7,25369(v1)
 284:	8c3f0100 	lw	ra,256(at)
 288:	19000000 	blez	t0,28c <NESTED_COUNT+0x14c>
 28c:	3f010073 	0x3f010073
 290:	00000117 	0x117
	...
Disassembly of section .debug_line.6:

00000000 <.debug_line.6>:
   0:	000000c4 	0xc4
   4:	001f0002 	srl	zero,ra,0x0
   8:	01010000 	0x1010000
   c:	000d0efb 	dsra	at,t5,0x1b
  10:	01010101 	0x1010101
  14:	01000000 	0x1000000
  18:	00010000 	sll	zero,at,0x0
  1c:	6e697270 	ldr	t1,29296(s3)
  20:	632e6674 	daddi	t6,t9,26228
  24:	00000000 	nop
  28:	02050000 	0x2050000
  2c:	a0801590 	sb	zero,5520(a0)
  30:	bb49f318 	swr	t1,-3304(k0)
  34:	08820b03 	j	2082c0c <NESTED_COUNT+0x2082acc>
  38:	820d0374 	lb	t5,884(s0)
  3c:	7003bcbb 	0x7003bcbb
  40:	f3853c08 	scd	a1,15368(gp)
  44:	82bb8182 	lb	k1,-32382(s5)
  48:	03820c03 	0x3820c03
  4c:	50bd8277 	beql	a1,sp,fffe0a2c <__bbs_end+0x5f7c8b84>
  50:	3c086603 	lui	t0,0x6603
  54:	08821d03 	j	208740c <NESTED_COUNT+0x20872cc>
  58:	4d814fac 	0x4d814fac
  5c:	83142802 	lb	s4,10242(t8)
  60:	2a03b9bb 	slti	v1,s0,-17989
  64:	02012402 	0x2012402
  68:	82f71228 	lb	s7,4648(s7)
  6c:	834a3d08 	lb	t2,15624(k0)
  70:	1234024b 	beq	s1,s4,9a0 <NESTED_COUNT+0x860>
  74:	02824584 	0x2824584
  78:	03821534 	teq	gp,v0,0x54
  7c:	82868214 	lb	a2,-32236(s4)
  80:	4a826503 	c2	0x826503
  84:	03153402 	0x3153402
  88:	864b8254 	lh	t3,-32172(s2)
  8c:	03823503 	0x3823503
  90:	6803826f 	ldl	v1,-32145(zero)
  94:	bc4b8682 	cache	0xb,-31102(v0)
  98:	85474d49 	lh	a3,19785(t2)
  9c:	034b4f45 	0x34b4f45
  a0:	1403ba7a 	bne	zero,v1,fffeea8c <__bbs_end+0x5f7d6be4>
  a4:	82610382 	lb	at,898(s3)
  a8:	814a3e08 	lb	t2,15880(t2)
  ac:	821e034a 	lb	s8,842(s0)
  b0:	0809038a 	j	240e28 <NESTED_COUNT+0x240ce8>
  b4:	086f033c 	j	1bc0cf0 <NESTED_COUNT+0x1bc0bb0>
  b8:	8259033c 	lb	t9,828(s2)
  bc:	823703f3 	lb	s7,1011(s1)
  c0:	02826f03 	0x2826f03
  c4:	01010008 	0x1010008
Disassembly of section .debug_ranges:

00000000 <.debug_ranges>:
   0:	00000048 	0x48
   4:	00000060 	0x60
   8:	0000007c 	dsll32	zero,zero,0x1
   c:	000000d0 	0xd0
	...
  18:	0000003c 	dsll32	zero,zero,0x0
  1c:	00000048 	0x48
  20:	00000060 	0x60
  24:	00000088 	0x88
  28:	00000054 	0x54
  2c:	0000005c 	0x5c
	...
  38:	000000ec 	0xec
  3c:	00000104 	0x104
  40:	00000108 	0x108
  44:	0000010c 	syscall	0x4
	...
  50:	000002e0 	0x2e0
  54:	00000340 	sll	zero,zero,0xd
  58:	00000798 	0x798
  5c:	000007b0 	tge	zero,zero,0x1e
	...
  68:	00000020 	add	zero,zero,zero
  6c:	00000040 	sll	zero,zero,0x1
  70:	0000004c 	syscall	0x1
  74:	00000050 	0x50
	...
  80:	000000ac 	0xac
  84:	000000cc 	syscall	0x3
  88:	000000d8 	0xd8
  8c:	000000dc 	0xdc
	...
Disassembly of section .debug_abbrev.7:

00000000 <.debug_abbrev.7>:
   0:	10011101 	beq	zero,at,4408 <NESTED_COUNT+0x42c8>
   4:	11011206 	beq	t0,at,4820 <NESTED_COUNT+0x46e0>
   8:	130e2501 	beq	t8,t6,9410 <NESTED_COUNT+0x92d0>
   c:	1b0e030b 	0x1b0e030b
  10:	0200000e 	0x200000e
  14:	0e030016 	jal	80c0058 <NESTED_COUNT+0x80bff18>
  18:	0b3b0b3a 	j	cec2ce8 <NESTED_COUNT+0xcec2ba8>
  1c:	00001349 	0x1349
  20:	0b000f03 	j	c003c0c <NESTED_COUNT+0xc003acc>
  24:	0400000b 	bltz	zero,54 <KERNEL+0x4c>
  28:	1301012e 	beq	t8,at,4e4 <NESTED_COUNT+0x3a4>
  2c:	0b3a0e03 	j	ce8380c <NESTED_COUNT+0xce836cc>
  30:	0c270b3b 	jal	9c2cec <NESTED_COUNT+0x9c2bac>
  34:	01120111 	0x1120111
  38:	40064081 	0x40064081
  3c:	0500000a 	bltz	t0,68 <KERNEL+0x60>
  40:	08030005 	j	c0014 <NESTED_COUNT+0xbfed4>
  44:	0b3b0b3a 	j	cec2ce8 <NESTED_COUNT+0xcec2ba8>
  48:	0a021349 	j	8084d24 <NESTED_COUNT+0x8084be4>
  4c:	34060000 	li	a2,0x0
  50:	3a080300 	xori	t0,s0,0x300
  54:	490b3b0b 	0x490b3b0b
  58:	000a0213 	0xa0213
  5c:	010b0700 	0x10b0700
  60:	00000655 	0x655
  64:	3f012e08 	0x3f012e08
  68:	3a0e030c 	xori	t6,s0,0x30c
  6c:	490b3b0b 	0x490b3b0b
  70:	000c3c13 	0xc3c13
  74:	00180900 	sll	at,t8,0x4
  78:	0f0a0000 	jal	c280000 <NESTED_COUNT+0xc27fec0>
  7c:	490b0b00 	0x490b0b00
  80:	0b000013 	j	c00004c <NESTED_COUNT+0xbffff0c>
  84:	0e030024 	jal	80c0090 <NESTED_COUNT+0x80bff50>
  88:	0b3e0b0b 	j	cf82c2c <NESTED_COUNT+0xcf82aec>
  8c:	240c0000 	li	t4,0
  90:	0b080300 	j	c200c00 <NESTED_COUNT+0xc200ac0>
  94:	000b3e0b 	0xb3e0b
  98:	012e0d00 	0x12e0d00
  9c:	0c3f1301 	jal	fc4c04 <NESTED_COUNT+0xfc4ac4>
  a0:	0b3a0e03 	j	ce8380c <NESTED_COUNT+0xce836cc>
  a4:	0c270b3b 	jal	9c2cec <NESTED_COUNT+0x9c2bac>
  a8:	01120111 	0x1120111
  ac:	40064081 	0x40064081
  b0:	0e00000a 	jal	8000028 <NESTED_COUNT+0x7fffee8>
  b4:	08030034 	j	c00d0 <NESTED_COUNT+0xbff90>
  b8:	0b3b0b3a 	j	cec2ce8 <NESTED_COUNT+0xcec2ba8>
  bc:	00001349 	0x1349
  c0:	0300050f 	0x300050f
  c4:	3b0b3a0e 	xori	t3,t8,0x3a0e
  c8:	0213490b 	0x213490b
  cc:	1000000a 	b	f8 <USER+0x54>
  d0:	13490026 	beq	k0,t1,16c <NESTED_COUNT+0x2c>
  d4:	Address 0x00000000000000d4 is out of bounds.

Disassembly of section .debug_info.8:

00000000 <.debug_info.8>:
   0:	0000013b 	dsra	zero,zero,0x4
   4:	00000002 	srl	zero,zero,0x0
   8:	01040000 	0x1040000
   c:	00000000 	nop
  10:	a0801ad4 	sb	zero,6868(a0)
  14:	a0801960 	sb	zero,6496(a0)
  18:	00000118 	0x118
  1c:	00036701 	0x36701
  20:	00021b00 	sll	v1,v0,0xc
  24:	03580200 	0x3580200
  28:	2b020000 	slti	v0,t8,0
  2c:	00000030 	tge	zero,zero
  30:	5f020403 	0x5f020403
  34:	02000003 	0x2000003
  38:	00002569 	0x2569
  3c:	009b0400 	0x9b0400
  40:	03700000 	0x3700000
  44:	10010000 	beq	zero,at,48 <KERNEL+0x40>
  48:	80196001 	lb	t9,24577(zero)
  4c:	801a3ca0 	lb	k0,15520(zero)
  50:	0001f0a0 	0x1f0a0
  54:	056d0100 	0x56d0100
  58:	00677261 	0x677261
  5c:	009b0f01 	0x9b0f01
  60:	54010000 	bnel	zero,at,64 <KERNEL+0x5c>
  64:	01007305 	0x1007305
  68:	00009d0f 	0x9d0f
  6c:	05640100 	0x5640100
  70:	0f01006c 	jal	c0401b0 <NESTED_COUNT+0xc040070>
  74:	000000aa 	0xaa
  78:	69066201 	ldl	a2,25089(t0)
  7c:	aa110100 	swl	s1,256(s0)
  80:	01000000 	0x1000000
  84:	00180761 	0x180761
  88:	01080000 	0x1080000
  8c:	00000023 	negu	zero,zero
  90:	00aa1901 	0xaa1901
  94:	09010000 	j	4040000 <NESTED_COUNT+0x403fec0>
  98:	03000000 	0x3000000
  9c:	a3040a04 	sb	a0,2564(t8)
  a0:	0b000000 	j	c000000 <NESTED_COUNT+0xbfffec0>
  a4:	00000165 	0x165
  a8:	690c0601 	ldl	t4,1537(t0)
  ac:	0400746e 	bltz	zero,1d268 <NESTED_COUNT+0x1d128>
  b0:	00e50d05 	0xe50d05
  b4:	80010000 	lb	at,0(zero)
  b8:	01000003 	0x1000003
  bc:	1a3c011f 	0x1a3c011f
  c0:	1a78a080 	0x1a78a080
  c4:	0218a080 	0x218a080
  c8:	6d010000 	ldr	at,0(t0)
  cc:	746d6605 	jalx	1b59814 <NESTED_COUNT+0x1b596d4>
  d0:	9d1e0100 	lwu	s8,256(t0)
  d4:	01000000 	0x1000000
  d8:	610e0952 	daddi	t6,t0,2386
  dc:	20010070 	addi	at,zero,112
  e0:	00000032 	tlt	zero,zero
  e4:	01330d00 	0x1330d00
  e8:	79010000 	0x79010000
  ec:	01000003 	0x1000003
  f0:	1a780128 	0x1a780128
  f4:	1ad4a080 	0x1ad4a080
  f8:	0230a080 	0x230a080
  fc:	6d010000 	ldr	at,0(t0)
 100:	00090c0f 	0x90c0f
 104:	33270100 	andi	a3,t9,0x100
 108:	01000001 	0x1000001
 10c:	04eb0f52 	tltiu	a3,3922
 110:	27010000 	addiu	at,t8,0
 114:	000000aa 	0xaa
 118:	66055301 	daddiu	a1,s0,21249
 11c:	0100746d 	0x100746d
 120:	00013327 	0x13327
 124:	09600100 	j	5800400 <NESTED_COUNT+0x58002c0>
 128:	0070610e 	0x70610e
 12c:	00322901 	0x322901
 130:	0a000000 	j	8000000 <NESTED_COUNT+0x7fffec0>
 134:	00013904 	0x13904
 138:	00a31000 	0xa31000
 13c:	Address 0x000000000000013c is out of bounds.

Disassembly of section .debug_line.9:

00000000 <.debug_line.9>:
   0:	0000007d 	0x7d
   4:	003e0002 	0x3e0002
   8:	01010000 	0x1010000
   c:	000d0efb 	dsra	at,t5,0x1b
  10:	01010101 	0x1010101
  14:	01000000 	0x1000000
  18:	2e010000 	sltiu	at,s0,0
  1c:	6572662f 	daddiu	s2,t3,26159
  20:	61747365 	daddi	s4,t3,29541
  24:	6e69646e 	ldr	t1,25710(s3)
  28:	6e692d67 	ldr	t1,11623(s3)
  2c:	70000063 	0x70000063
  30:	746e6972 	jalx	1b9a5c8 <NESTED_COUNT+0x1b9a488>
  34:	00632e6b 	0x632e6b
  38:	73000000 	0x73000000
  3c:	72616474 	0x72616474
  40:	00682e67 	0x682e67
  44:	00000001 	0x1
  48:	60020500 	daddi	v0,zero,1280
  4c:	03a08019 	0x3a08019
  50:	464e010f 	c1	0x4e010f
  54:	864e7408 	lh	t6,29704(s2)
  58:	834ab8f4 	lb	t2,-18188(k0)
  5c:	ad084b81 	sw	t0,19329(t0)
  60:	03864ab8 	0x3864ab8
  64:	4ae40878 	c2	0xe40878
  68:	85af088a 	lh	t7,2186(t5)
  6c:	4db7bd47 	0x4db7bd47
  70:	7dbfbf83 	0x7dbfbf83
  74:	454f454f 	0x454f454f
  78:	7508834f 	jalx	4220d3c <NESTED_COUNT+0x4220bfc>
  7c:	01001402 	0x1001402
  80:	Address 0x0000000000000080 is out of bounds.

Disassembly of section .debug_abbrev.10:

00000000 <.debug_abbrev.10>:
   0:	10011101 	beq	zero,at,4408 <NESTED_COUNT+0x42c8>
   4:	11011206 	beq	t0,at,4820 <NESTED_COUNT+0x46e0>
   8:	130e2501 	beq	t8,t6,9410 <NESTED_COUNT+0x92d0>
   c:	1b0e030b 	0x1b0e030b
  10:	0200000e 	0x200000e
  14:	0e030016 	jal	80c0058 <NESTED_COUNT+0x80bff18>
  18:	0b3b0b3a 	j	cec2ce8 <NESTED_COUNT+0xcec2ba8>
  1c:	00001349 	0x1349
  20:	0b000f03 	j	c003c0c <NESTED_COUNT+0xc003acc>
  24:	0400000b 	bltz	zero,54 <KERNEL+0x4c>
  28:	1301012e 	beq	t8,at,4e4 <NESTED_COUNT+0x3a4>
  2c:	0e030c3f 	jal	80c30fc <NESTED_COUNT+0x80c2fbc>
  30:	053b0b3a 	0x53b0b3a
  34:	13490c27 	beq	k0,t1,30d4 <NESTED_COUNT+0x2f94>
  38:	01120111 	0x1120111
  3c:	40064081 	0x40064081
  40:	0500000a 	bltz	t0,6c <KERNEL+0x64>
  44:	08030005 	j	c0014 <NESTED_COUNT+0xbfed4>
  48:	053b0b3a 	0x53b0b3a
  4c:	0a021349 	j	8084d24 <NESTED_COUNT+0x8084be4>
  50:	05060000 	0x5060000
  54:	3a0e0300 	xori	t6,s0,0x300
  58:	49053b0b 	0x49053b0b
  5c:	000a0213 	0xa0213
  60:	00340700 	0x340700
  64:	0b3a0e03 	j	ce8380c <NESTED_COUNT+0xce836cc>
  68:	1349053b 	beq	k0,t1,1558 <NESTED_COUNT+0x1418>
  6c:	00000a02 	srl	at,zero,0x8
  70:	03003408 	0x3003408
  74:	3b0b3a08 	xori	t3,t8,0x3a08
  78:	02134905 	0x2134905
  7c:	0900000a 	j	4000028 <NESTED_COUNT+0x3fffee8>
  80:	1301010b 	beq	t8,at,4b0 <NESTED_COUNT+0x370>
  84:	01120111 	0x1120111
  88:	340a0000 	li	t2,0x0
  8c:	3a080300 	xori	t0,s0,0x300
  90:	49053b0b 	0x49053b0b
  94:	0b000013 	j	c00004c <NESTED_COUNT+0xbffff0c>
  98:	0111010b 	0x111010b
  9c:	00000112 	0x112
  a0:	55010b0c 	bnel	t0,at,2cd4 <NESTED_COUNT+0x2b94>
  a4:	0d000006 	jal	4000018 <NESTED_COUNT+0x3fffed8>
  a8:	08030024 	j	c0090 <NESTED_COUNT+0xbff50>
  ac:	0b3e0b0b 	j	cf82c2c <NESTED_COUNT+0xcf82aec>
  b0:	0f0e0000 	jal	c380000 <NESTED_COUNT+0xc37fec0>
  b4:	490b0b00 	0x490b0b00
  b8:	0f000013 	jal	c00004c <NESTED_COUNT+0xbffff0c>
  bc:	0e030024 	jal	80c0090 <NESTED_COUNT+0x80bff50>
  c0:	0b3e0b0b 	j	cf82c2c <NESTED_COUNT+0xcf82aec>
  c4:	2e100000 	sltiu	s0,s0,0
  c8:	3f130101 	0x3f130101
  cc:	3a0e030c 	xori	t6,s0,0x30c
  d0:	270b3b0b 	addiu	t3,t8,15115
  d4:	1113490c 	beq	t0,s3,12508 <NESTED_COUNT+0x123c8>
  d8:	81011201 	lb	at,4609(t0)
  dc:	0a400640 	j	9001900 <NESTED_COUNT+0x90017c0>
  e0:	05110000 	bgezal	t0,e4 <USER+0x40>
  e4:	3a080300 	xori	t0,s0,0x300
  e8:	490b3b0b 	0x490b3b0b
  ec:	000a0213 	0xa0213
  f0:	00051200 	sll	v0,a1,0x8
  f4:	0b3a0e03 	j	ce8380c <NESTED_COUNT+0xce836cc>
  f8:	13490b3b 	beq	k0,t1,2de8 <NESTED_COUNT+0x2ca8>
  fc:	00000a02 	srl	at,zero,0x8
 100:	03003413 	0x3003413
 104:	3b0b3a08 	xori	t3,t8,0x3a08
 108:	0213490b 	0x213490b
 10c:	1400000a 	bnez	zero,138 <USER+0x94>
 110:	1301012e 	beq	t8,at,5cc <NESTED_COUNT+0x48c>
 114:	0e030c3f 	jal	80c30fc <NESTED_COUNT+0x80c2fbc>
 118:	0b3b0b3a 	j	cec2ce8 <NESTED_COUNT+0xcec2ba8>
 11c:	01110c27 	0x1110c27
 120:	40810112 	0x40810112
 124:	000a4006 	srlv	t0,t2,zero
 128:	00341500 	0x341500
 12c:	0b3a0803 	j	ce8200c <NESTED_COUNT+0xce81ecc>
 130:	13490b3b 	beq	k0,t1,2e20 <NESTED_COUNT+0x2ce0>
 134:	34160000 	li	s6,0x0
 138:	3a0e0300 	xori	t6,s0,0x300
 13c:	490b3b0b 	0x490b3b0b
 140:	000a0213 	0xa0213
 144:	00341700 	0x341700
 148:	0b3a0e03 	j	ce8380c <NESTED_COUNT+0xce836cc>
 14c:	13490b3b 	beq	k0,t1,2e3c <NESTED_COUNT+0x2cfc>
 150:	15180000 	bne	t0,t8,154 <NESTED_COUNT+0x14>
 154:	27130101 	addiu	s3,t8,257
 158:	1900000c 	blez	t0,18c <NESTED_COUNT+0x4c>
 15c:	13490005 	beq	k0,t1,174 <NESTED_COUNT+0x34>
 160:	011a0000 	0x11a0000
 164:	49130101 	0x49130101
 168:	1b000013 	blez	t8,1b8 <NESTED_COUNT+0x78>
 16c:	13490021 	beq	k0,t1,1f4 <NESTED_COUNT+0xb4>
 170:	0000052f 	0x52f
 174:	4900211c 	bc2f	85e8 <NESTED_COUNT+0x84a8>
 178:	000b2f13 	0xb2f13
 17c:	00261d00 	0x261d00
 180:	00001349 	0x1349
	...
Disassembly of section .debug_info.11:

00000000 <.debug_info.11>:
   0:	00000389 	0x389
   4:	00000002 	srl	zero,zero,0x0
   8:	01040000 	0x1040000
   c:	00000000 	nop
  10:	a08022ac 	sb	zero,8876(a0)
  14:	a0801ae0 	sb	zero,6880(a0)
  18:	00000118 	0x118
  1c:	0003b501 	0x3b501
  20:	00021b00 	sll	v1,v0,0xc
  24:	03580200 	0x3580200
  28:	2b020000 	slti	v0,t8,0
  2c:	00000030 	tge	zero,zero
  30:	5f020403 	0x5f020403
  34:	02000003 	0x2000003
  38:	00002569 	0x2569
  3c:	01460400 	0x1460400
  40:	d0010000 	lld	at,0(zero)
  44:	01000003 	0x1000003
  48:	4601014b 	c1	0x1014b
  4c:	e0000001 	sc	zero,1(zero)
  50:	34a0801a 	ori	zero,a1,0x801a
  54:	5ca0801c 	bgtzl	a1,fffe00c8 <__bbs_end+0x5f7c8220>
  58:	01000002 	0x1000002
  5c:	7562056d 	jalx	58815b4 <NESTED_COUNT+0x5881474>
  60:	49010066 	bc2t	1fc <NESTED_COUNT+0xbc>
  64:	00014d01 	0x14d01
  68:	05590100 	0x5590100
  6c:	49010075 	bc2t	244 <NESTED_COUNT+0x104>
  70:	00015a01 	0x15a01
  74:	06550100 	0x6550100
  78:	000002cc 	syscall	0xb
  7c:	46014901 	sub.s	$f4,$f9,$f1
  80:	01000001 	0x1000001
  84:	040e0656 	tnei	zero,1622
  88:	49010000 	bc2t	8c <STACK+0x18>
  8c:	00014601 	0x14601
  90:	06570100 	0x6570100
  94:	000003ae 	0x3ae
  98:	46014a01 	sub.s	$f8,$f9,$f1
  9c:	01000001 	0x1000001
  a0:	03de065a 	0x3de065a
  a4:	4a010000 	c2	0x10000
  a8:	00014601 	0x14601
  ac:	065d0100 	0x65d0100
  b0:	000003d9 	0x3d9
  b4:	53014a01 	beql	t8,at,128bc <NESTED_COUNT+0x1277c>
  b8:	01000001 	0x1000001
  bc:	0407065b 	0x407065b
  c0:	4a010000 	c2	0x10000
  c4:	00014601 	0x14601
  c8:	075c0100 	0x75c0100
  cc:	000003fa 	dsrl	zero,zero,0xf
  d0:	46015601 	sub.s	$f24,$f10,$f1
  d4:	01000001 	0x1000001
  d8:	00700855 	0x700855
  dc:	4d015701 	bc3t	15ce4 <NESTED_COUNT+0x15ba4>
  e0:	01000001 	0x1000001
  e4:	00690858 	0x690858
  e8:	46015801 	sub.s	$f0,$f11,$f1
  ec:	01000001 	0x1000001
  f0:	010b0954 	0x10b0954
  f4:	1af80000 	0x1af80000
  f8:	1b40a080 	blez	k0,fffe82fc <__bbs_end+0x5f7d0454>
  fc:	740aa080 	jalx	2a8200 <NESTED_COUNT+0x2a80c0>
 100:	0100706d 	0x100706d
 104:	0146015b 	0x146015b
 108:	0b000000 	j	c000000 <NESTED_COUNT+0xbfffec0>
 10c:	a0801bb4 	sb	zero,7092(a0)
 110:	a0801bf4 	sb	zero,7156(a0)
 114:	00038707 	0x38707
 118:	01870100 	0x1870100
 11c:	00000146 	0x146
 120:	65085801 	daddiu	t0,t0,22529
 124:	0100646e 	0x100646e
 128:	01460188 	0x1460188
 12c:	57010000 	bnel	t8,at,130 <USER+0x8c>
 130:	0000380c 	syscall	0xe0
 134:	6d740800 	ldr	s4,2048(t3)
 138:	91010070 	lbu	at,112(t0)
 13c:	00015301 	0x15301
 140:	00560100 	0x560100
 144:	690d0000 	ldl	t5,0(t0)
 148:	0400746e 	bltz	zero,1d304 <NESTED_COUNT+0x1d1c4>
 14c:	53040e05 	beql	t8,a0,3964 <NESTED_COUNT+0x3824>
 150:	0f000001 	jal	c000004 <NESTED_COUNT+0xbfffec4>
 154:	00000165 	0x165
 158:	850f0601 	lh	t7,1537(t0)
 15c:	04000001 	bltz	zero,164 <NESTED_COUNT+0x24>
 160:	01be1007 	srav	v0,s8,t5
 164:	bd010000 	cache	0x1,0(t0)
 168:	01000003 	0x1000003
 16c:	014601fa 	0x14601fa
 170:	1c340000 	0x1c340000
 174:	1cb0a080 	0x1cb0a080
 178:	026ca080 	0x26ca080
 17c:	6d010000 	ldr	at,0(t0)
 180:	66756211 	daddiu	s5,s3,25105
 184:	4df90100 	0x4df90100
 188:	01000001 	0x1000001
 18c:	00631154 	0x631154
 190:	0153f901 	0x153f901
 194:	55010000 	bnel	t0,at,198 <NESTED_COUNT+0x58>
 198:	0003ae12 	0x3ae12
 19c:	46f90100 	c1	0xf90100
 1a0:	01000001 	0x1000001
 1a4:	03de1256 	0x3de1256
 1a8:	f9010000 	sdc2	$1,0(t0)
 1ac:	00000146 	0x146
 1b0:	69135701 	ldl	s3,22273(t0)
 1b4:	46fb0100 	c1	0xfb0100
 1b8:	01000001 	0x1000001
 1bc:	3c040057 	lui	a0,0x57
 1c0:	01000002 	0x1000002
 1c4:	00000396 	0x396
 1c8:	01011d01 	0x1011d01
 1cc:	00000146 	0x146
 1d0:	a0801cb0 	sb	zero,7344(a0)
 1d4:	a0801d98 	sb	zero,7576(a0)
 1d8:	0000027c 	dsll32	zero,zero,0x9
 1dc:	62056d01 	daddi	a1,s0,27905
 1e0:	01006675 	0x1006675
 1e4:	014d011c 	0x14d011c
 1e8:	59010000 	0x59010000
 1ec:	01007305 	0x1007305
 1f0:	014d011c 	0x14d011c
 1f4:	5a010000 	0x5a010000
 1f8:	0003ae06 	0x3ae06
 1fc:	011c0100 	0x11c0100
 200:	00000146 	0x146
 204:	de065601 	ld	a2,22017(s0)
 208:	01000003 	0x1000003
 20c:	0146011c 	0x146011c
 210:	57010000 	bnel	t8,at,214 <NESTED_COUNT+0xd4>
 214:	01006908 	0x1006908
 218:	0146011e 	0x146011e
 21c:	57010000 	bnel	t8,at,220 <NESTED_COUNT+0xe0>
 220:	6e656c08 	ldr	a1,27656(s3)
 224:	011f0100 	0x11f0100
 228:	00000146 	0x146
 22c:	73085501 	0x73085501
 230:	20010031 	addi	at,zero,49
 234:	00014d01 	0x14d01
 238:	00530100 	0x530100
 23c:	00032414 	0x32414
 240:	03c70100 	0x3c70100
 244:	24010000 	li	at,0
 248:	801d9801 	lb	sp,-26623(zero)
 24c:	8022aca0 	lb	v0,-21344(at)
 250:	00028ca0 	0x28ca0
 254:	126d0100 	beq	s3,t5,658 <NESTED_COUNT+0x518>
 258:	00000372 	tlt	zero,zero,0xd
 25c:	033c2001 	0x33c2001
 260:	62010000 	daddi	at,s0,0
 264:	67726111 	daddiu	s2,k1,24849
 268:	3a210100 	xori	at,s1,0x100
 26c:	01000003 	0x1000003
 270:	6d661163 	ldr	a2,4451(t3)
 274:	22010074 	addi	at,s0,116
 278:	0000014d 	break	0x0,0x5
 27c:	61116001 	daddi	s1,t0,24577
 280:	23010070 	addi	at,t8,112
 284:	00000032 	tlt	zero,zero
 288:	62136101 	daddi	s3,s0,24833
 28c:	01006675 	0x1006675
 290:	0003422e 	0x3422e
 294:	20910200 	addi	s1,a0,512
 298:	01006315 	0x1006315
 29c:	00015330 	tge	zero,at,0x14c
 2a0:	00731500 	0x731500
 2a4:	014d3101 	0x14d3101
 2a8:	6e130000 	ldr	s3,0(s0)
 2ac:	01006d75 	0x1006d75
 2b0:	00035a32 	tlt	zero,v1,0x168
 2b4:	16550100 	bne	s2,s5,6b8 <NESTED_COUNT+0x578>
 2b8:	000003e6 	0x3e6
 2bc:	01463401 	0x1463401
 2c0:	56010000 	bnel	s0,at,2c4 <NESTED_COUNT+0x184>
 2c4:	00040e16 	0x40e16
 2c8:	46350100 	add.d	$f4,$f0,$f21
 2cc:	01000001 	0x1000001
 2d0:	03f41657 	0x3f41657
 2d4:	36010000 	ori	at,s0,0x0
 2d8:	00000146 	0x146
 2dc:	ef175801 	swc3	$23,22529(t8)
 2e0:	01000003 	0x1000003
 2e4:	00014637 	0x14637
 2e8:	03de1600 	0x3de1600
 2ec:	38010000 	xori	at,zero,0x0
 2f0:	00000146 	0x146
 2f4:	d9165901 	ldc2	$22,22785(t0)
 2f8:	01000003 	0x1000003
 2fc:	00015339 	0x15339
 300:	165a0100 	bne	s2,k0,704 <NESTED_COUNT+0x5c4>
 304:	000003ae 	0x3ae
 308:	01463b01 	0x1463b01
 30c:	56010000 	bnel	s0,at,310 <NESTED_COUNT+0x1d0>
 310:	0000500c 	syscall	0x140
 314:	038d1600 	0x38d1600
 318:	40010000 	mfc0	at,$0
 31c:	0000014d 	break	0x0,0x5
 320:	00005501 	0x5501
 324:	00033a18 	0x33a18
 328:	3a190100 	xori	t9,s0,0x100
 32c:	19000003 	blez	t0,33c <NESTED_COUNT+0x1fc>
 330:	0000014d 	break	0x0,0x5
 334:	00014619 	0x14619
 338:	04030000 	bgezl	zero,33c <NESTED_COUNT+0x1fc>
 33c:	0324040e 	0x324040e
 340:	531a0000 	beql	t8,k0,344 <NESTED_COUNT+0x204>
 344:	53000003 	beqzl	t8,354 <NESTED_COUNT+0x214>
 348:	1b000001 	blez	t8,350 <NESTED_COUNT+0x210>
 34c:	00000353 	0x353
 350:	0f0003e7 	jal	c000f9c <NESTED_COUNT+0xc000e5c>
 354:	0000018a 	0x18a
 358:	7c0f0704 	0x7c0f0704
 35c:	04000000 	bltz	zero,360 <NESTED_COUNT+0x220>
 360:	03711a05 	0x3711a05
 364:	03710000 	0x3710000
 368:	531c0000 	beql	t8,gp,36c <NESTED_COUNT+0x22c>
 36c:	18000003 	blez	zero,37c <NESTED_COUNT+0x23c>
 370:	01531d00 	0x1531d00
 374:	a2160000 	sb	s6,0(s0)
 378:	01000003 	0x1000003
 37c:	00038717 	0x38717
 380:	f0030500 	scd	v1,1280(zero)
 384:	1da08035 	bgtz	t5,fffe045c <__bbs_end+0x5f7c85b4>
 388:	00000361 	0x361
	...
Disassembly of section .debug_line.12:

00000000 <.debug_line.12>:
   0:	00000172 	tlt	zero,zero,0x5
   4:	003d0002 	0x3d0002
   8:	01010000 	0x1010000
   c:	000d0efb 	dsra	at,t5,0x1b
  10:	01010101 	0x1010101
  14:	01000000 	0x1000000
  18:	2e010000 	sltiu	at,s0,0
  1c:	6572662f 	daddiu	s2,t3,26159
  20:	61747365 	daddi	s4,t3,29541
  24:	6e69646e 	ldr	t1,25710(s3)
  28:	6e692d67 	ldr	t1,11623(s3)
  2c:	70000063 	0x70000063
  30:	746e6972 	jalx	1b9a5c8 <NESTED_COUNT+0x1b9a488>
  34:	0000632e 	0x632e
  38:	74730000 	jalx	1cc0000 <NESTED_COUNT+0x1cbfec0>
  3c:	67726164 	daddiu	s2,k1,24932
  40:	0100682e 	dsub	t5,t0,zero
  44:	00000000 	nop
  48:	1ae00205 	blez	s7,860 <NESTED_COUNT+0x720>
  4c:	ca03a080 	lwc2	$3,-24448(s0)
  50:	0c030102 	jal	c0408 <NESTED_COUNT+0xc02c8>
  54:	084e3c08 	j	138f020 <NESTED_COUNT+0x138eee0>
  58:	49854a3e 	0x49854a3e
  5c:	75084f83 	jalx	4213e0c <NESTED_COUNT+0x4213ccc>
  60:	4cbe8384 	0x4cbe8384
  64:	ba86874a 	swr	a2,-30902(s4)
  68:	3d0889ba 	0x3d0889ba
  6c:	820c0349 	lb	t4,841(s0)
  70:	7e528549 	0x7e528549
  74:	4c4b494b 	0x4c4b494b
  78:	884d7f4b 	lwl	t5,32587(v0)
  7c:	03824703 	0x3824703
  80:	3d088217 	0x3d088217
  84:	fd038649 	sd	v1,-31159(t0)
  88:	864df27e 	lh	t5,-3458(s2)
  8c:	49bb8285 	0x49bb8285
  90:	820c0382 	lb	t4,898(s0)
  94:	bb827803 	swr	v0,30723(gp)
  98:	86868249 	lh	a2,-32183(s4)
  9c:	03826e03 	0x3826e03
  a0:	7a038225 	0x7a038225
  a4:	084e844a 	j	13a1128 <NESTED_COUNT+0x13a0fe8>
  a8:	83864a77 	lb	a2,19063(gp)
  ac:	8682b983 	lh	v0,-18045(s4)
  b0:	038249f3 	tltu	gp,v0,0x127
  b4:	7603820e 	jalx	80e0838 <NESTED_COUNT+0x80e06f8>
  b8:	8249bb82 	lb	t1,-17534(s2)
  bc:	81750886 	lb	s5,2182(t3)
  c0:	03884983 	0x3884983
  c4:	03827de7 	0x3827de7
  c8:	0128021f 	0x128021f
  cc:	28023c08 	slti	v0,zero,15368
  d0:	4a770816 	c2	0x770816
  d4:	f2820903 	scd	v0,2307(s4)
  d8:	b5820d03 	sdr	v0,3331(t4)
  dc:	ba874d4c 	swr	a3,19788(s4)
  e0:	0284ba87 	0x284ba87
  e4:	03ba1634 	teq	sp,k0,0x58
  e8:	03ba8210 	0x3ba8210
  ec:	01240273 	tltu	t1,a0,0x9
  f0:	f24c80f2 	scd	t4,-32526(s2)
  f4:	03820d03 	0x3820d03
  f8:	f58200dd 	sdc1	$f2,221(t4)
  fc:	ba7f8603 	swr	ra,-31229(s3)
 100:	7403817e 	jalx	e05f8 <NESTED_COUNT+0xe04b8>
 104:	e5038182 	swc1	$f3,-32382(t0)
 108:	02f58200 	0x2f58200
 10c:	034a1324 	0x34a1324
 110:	09038217 	j	40e085c <NESTED_COUNT+0x40e071c>
 114:	f251034a 	scd	s1,842(s2)
 118:	132402f5 	beq	t9,a0,cf0 <NESTED_COUNT+0xbb0>
 11c:	0220034a 	0x220034a
 120:	08bb0124 	j	2ec0490 <NESTED_COUNT+0x2ec0350>
 124:	4e034a75 	c3	0x34a75
 128:	f5012402 	sdc1	$f1,9218(t0)
 12c:	4a132402 	c2	0x132402
 130:	24026b03 	li	v0,27395
 134:	0887f501 	j	21fd404 <NESTED_COUNT+0x21fd2c4>
 138:	32034ae5 	andi	v1,s0,0x4ae5
 13c:	08bbe408 	j	2ef9020 <NESTED_COUNT+0x2ef8ee0>
 140:	b7034a75 	sdr	v1,19061(t8)
 144:	0124027f 	0x124027f
 148:	132402f5 	beq	t9,a0,d20 <NESTED_COUNT+0xbe0>
 14c:	023b034a 	0x23b034a
 150:	02f50124 	0x2f50124
 154:	034a1328 	0x34a1328
 158:	01240210 	0x1240210
 15c:	7fb50352 	0x7fb50352
 160:	ce034b82 	lwc3	$3,19330(s0)
 164:	e3038200 	sc	v1,-32256(t8)
 168:	0130027e 	0x130027e
 16c:	0800f603 	j	3d80c <NESTED_COUNT+0x3d6cc>
 170:	001c0274 	teq	zero,gp,0x9
 174:	Address 0x0000000000000174 is out of bounds.

Disassembly of section .debug_abbrev.13:

00000000 <.debug_abbrev.13>:
   0:	10011101 	beq	zero,at,4408 <NESTED_COUNT+0x42c8>
   4:	11011206 	beq	t0,at,4820 <NESTED_COUNT+0x46e0>
   8:	130e2501 	beq	t8,t6,9410 <NESTED_COUNT+0x92d0>
   c:	1b0e030b 	0x1b0e030b
  10:	0200000e 	0x200000e
  14:	0e030024 	jal	80c0090 <NESTED_COUNT+0x80bff50>
  18:	0b3e0b0b 	j	cf82c2c <NESTED_COUNT+0xcf82aec>
  1c:	16030000 	bne	s0,v1,20 <KERNEL+0x18>
  20:	3a0e0300 	xori	t6,s0,0x300
  24:	490b3b0b 	0x490b3b0b
  28:	04000013 	bltz	zero,78 <STACK+0x4>
  2c:	08030024 	j	c0090 <NESTED_COUNT+0xbff50>
  30:	0b3e0b0b 	j	cf82c2c <NESTED_COUNT+0xcf82aec>
  34:	13050000 	beq	t8,a1,38 <KERNEL+0x30>
  38:	03130101 	0x3130101
  3c:	3a0b0b0e 	xori	t3,s0,0xb0e
  40:	000b3b0b 	0xb3b0b
  44:	000d0600 	sll	zero,t5,0x18
  48:	0b3a0e03 	j	ce8380c <NESTED_COUNT+0xce836cc>
  4c:	13490b3b 	beq	k0,t1,2d3c <NESTED_COUNT+0x2bfc>
  50:	00000a38 	dsll	at,zero,0x8
  54:	0b000f07 	j	c003c1c <NESTED_COUNT+0xc003adc>
  58:	0013490b 	0x13490b
  5c:	01130800 	0x1130800
  60:	08031301 	j	c4c04 <NESTED_COUNT+0xc4ac4>
  64:	0b3a050b 	j	ce8142c <NESTED_COUNT+0xce812ec>
  68:	00000b3b 	dsra	at,zero,0xc
  6c:	03000d09 	0x3000d09
  70:	3b0b3a08 	xori	t3,t8,0x3a08
  74:	3813490b 	xori	s3,zero,0x490b
  78:	0a00000a 	j	8000028 <NESTED_COUNT+0x7fffee8>
  7c:	13010104 	beq	t8,at,490 <NESTED_COUNT+0x350>
  80:	0b3a0b0b 	j	ce82c2c <NESTED_COUNT+0xce82aec>
  84:	00000b3b 	dsra	at,zero,0xc
  88:	0300280b 	0x300280b
  8c:	000d1c0e 	0xd1c0e
  90:	01010c00 	0x1010c00
  94:	13491301 	beq	k0,t1,4c9c <NESTED_COUNT+0x4b5c>
  98:	210d0000 	addi	t5,t0,0
  9c:	2f134900 	sltiu	s3,t8,18688
  a0:	0e00000b 	jal	800002c <NESTED_COUNT+0x7fffeec>
  a4:	0b0b000f 	j	c2c003c <NESTED_COUNT+0xc2bfefc>
  a8:	2e0f0000 	sltiu	t7,s0,0
  ac:	3f130101 	0x3f130101
  b0:	3a0e030c 	xori	t6,s0,0x30c
  b4:	110b3b0b 	beq	t0,t3,ece4 <NESTED_COUNT+0xeba4>
  b8:	81011201 	lb	at,4609(t0)
  bc:	0a400640 	j	9001900 <NESTED_COUNT+0x90017c0>
  c0:	34100000 	li	s0,0x0
  c4:	3a0e0300 	xori	t6,s0,0x300
  c8:	490b3b0b 	0x490b3b0b
  cc:	000a0213 	0xa0213
  d0:	002e1100 	0x2e1100
  d4:	0e030c3f 	jal	80c30fc <NESTED_COUNT+0x80c2fbc>
  d8:	0b3b0b3a 	j	cec2ce8 <NESTED_COUNT+0xcec2ba8>
  dc:	01120111 	0x1120111
  e0:	40064081 	0x40064081
  e4:	1200000a 	beqz	s0,110 <USER+0x6c>
  e8:	1301012e 	beq	t8,at,5a4 <NESTED_COUNT+0x464>
  ec:	0e030c3f 	jal	80c30fc <NESTED_COUNT+0x80c2fbc>
  f0:	0b3b0b3a 	j	cec2ce8 <NESTED_COUNT+0xcec2ba8>
  f4:	13490c27 	beq	k0,t1,3194 <NESTED_COUNT+0x3054>
  f8:	01120111 	0x1120111
  fc:	40064081 	0x40064081
 100:	1300000a 	beqz	t8,12c <USER+0x88>
 104:	08030005 	j	c0014 <NESTED_COUNT+0xbfed4>
 108:	0b3b0b3a 	j	cec2ce8 <NESTED_COUNT+0xcec2ba8>
 10c:	0a021349 	j	8084d24 <NESTED_COUNT+0x8084be4>
 110:	34140000 	li	s4,0x0
 114:	3a080300 	xori	t0,s0,0x300
 118:	490b3b0b 	0x490b3b0b
 11c:	15000013 	bnez	t0,16c <NESTED_COUNT+0x2c>
 120:	1301012e 	beq	t8,at,5dc <NESTED_COUNT+0x49c>
 124:	0e030c3f 	jal	80c30fc <NESTED_COUNT+0x80c2fbc>
 128:	0b3b0b3a 	j	cec2ce8 <NESTED_COUNT+0xcec2ba8>
 12c:	01110c27 	0x1110c27
 130:	40810112 	0x40810112
 134:	000a4006 	srlv	t0,t2,zero
 138:	00051600 	sll	v0,a1,0x18
 13c:	0b3a0e03 	j	ce8380c <NESTED_COUNT+0xce836cc>
 140:	13490b3b 	beq	k0,t1,2e30 <NESTED_COUNT+0x2cf0>
 144:	00000a02 	srl	at,zero,0x8
 148:	3f002e17 	0x3f002e17
 14c:	3a0e030c 	xori	t6,s0,0x30c
 150:	270b3b0b 	addiu	t3,t8,15115
 154:	1201110c 	beq	s0,at,4588 <NESTED_COUNT+0x4448>
 158:	06408101 	bltz	s2,fffe0560 <__bbs_end+0x5f7c86b8>
 15c:	00000a40 	sll	at,zero,0x9
 160:	03003418 	0x3003418
 164:	3b0b3a08 	xori	t3,t8,0x3a08
 168:	0213490b 	0x213490b
 16c:	1900000a 	blez	t0,198 <NESTED_COUNT+0x58>
 170:	0c3f002e 	jal	fc00b8 <NESTED_COUNT+0xfbff78>
 174:	0b3a0e03 	j	ce8380c <NESTED_COUNT+0xce836cc>
 178:	0c270b3b 	jal	9c2cec <NESTED_COUNT+0x9c2bac>
 17c:	01111349 	0x1111349
 180:	40810112 	0x40810112
 184:	000a4006 	srlv	t0,t2,zero
 188:	00341a00 	0x341a00
 18c:	0b3a0e03 	j	ce8380c <NESTED_COUNT+0xce836cc>
 190:	13490b3b 	beq	k0,t1,2e80 <NESTED_COUNT+0x2d40>
 194:	0c3c0c3f 	jal	f030fc <NESTED_COUNT+0xf02fbc>
 198:	341b0000 	li	k1,0x0
 19c:	3a0e0300 	xori	t6,s0,0x300
 1a0:	490b3b0b 	0x490b3b0b
 1a4:	020c3f13 	0x20c3f13
 1a8:	1c00000a 	bgtz	zero,1d4 <NESTED_COUNT+0x94>
 1ac:	13490035 	beq	k0,t1,284 <NESTED_COUNT+0x144>
 1b0:	Address 0x00000000000001b0 is out of bounds.

Disassembly of section .debug_info.14:

00000000 <.debug_info.14>:
   0:	00000511 	0x511
   4:	00000002 	srl	zero,zero,0x0
   8:	01040000 	0x1040000
   c:	00000000 	nop
  10:	a0802928 	sb	zero,10536(a0)
  14:	a08022b0 	sb	zero,8880(a0)
  18:	00000118 	0x118
  1c:	0004ae01 	0x4ae01
  20:	00021b00 	sll	v1,v0,0xc
  24:	015e0200 	0x15e0200
  28:	06010000 	bgez	s0,2c <KERNEL+0x24>
  2c:	00005402 	srl	t2,zero,0x10
  30:	03050200 	0x3050200
  34:	00000198 	0x198
  38:	003e3f05 	0x3e3f05
  3c:	7c020000 	0x7c020000
  40:	04000000 	bltz	zero,44 <KERNEL+0x3c>
  44:	00770205 	0x770205
  48:	05080000 	tgei	t0,0
  4c:	00015c02 	srl	t3,at,0x10
  50:	02080100 	0x2080100
  54:	000001c5 	0x1c5
  58:	97030702 	lhu	v1,1794(t8)
  5c:	05000001 	bltz	t0,64 <KERNEL+0x5c>
  60:	00006544 	0x6544
  64:	01850200 	0x1850200
  68:	07040000 	0x7040000
  6c:	00004b03 	sra	t1,zero,0xc
  70:	77450500 	jalx	d141400 <NESTED_COUNT+0xd1412c0>
  74:	02000000 	0x2000000
  78:	00000180 	sll	zero,zero,0x6
  7c:	6e030708 	ldr	v1,1800(s0)
  80:	05000002 	bltz	t0,8c <STACK+0x18>
  84:	00008947 	0x8947
  88:	6e690400 	ldr	t1,1024(s3)
  8c:	05040074 	0x5040074
  90:	0000b905 	0xb905
  94:	00012700 	sll	a0,at,0x1c
  98:	08040800 	j	102000 <NESTED_COUNT+0x101ec0>
  9c:	00017306 	0x17306
  a0:	b9090400 	swr	t1,1024(t0)
  a4:	02000000 	0x2000000
  a8:	db060010 	ldc2	$6,16(t8)
  ac:	04000002 	bltz	zero,b8 <USER+0x14>
  b0:	0000b909 	0xb909
  b4:	04100200 	bltzal	zero,8b8 <NESTED_COUNT+0x778>
  b8:	90040700 	lbu	a0,1792(zero)
  bc:	03000000 	0x3000000
  c0:	000001a0 	0x1a0
  c4:	00900a04 	0x900a04
  c8:	04070000 	0x4070000
  cc:	000000bf 	dsra32	zero,zero,0x2
  d0:	00019008 	0x19008
  d4:	62637000 	daddi	v1,s3,28672
  d8:	03016800 	0x3016800
  dc:	01270612 	0x1270612
  e0:	3a020000 	xori	v0,s0,0x0
  e4:	000000bf 	dsra32	zero,zero,0x2
  e8:	06001002 	bltz	s0,40f4 <NESTED_COUNT+0x3fb4>
  ec:	00000257 	0x257
  f0:	028c3b02 	0x28c3b02
  f4:	10020000 	beq	zero,v0,f8 <USER+0x54>
  f8:	00100608 	0x100608
  fc:	3c020000 	lui	v0,0x0
 100:	0000028c 	syscall	0xa
 104:	01a41003 	0x1a41003
 108:	00009706 	0x9706
 10c:	893e0200 	lwl	s8,512(t1)
 110:	03000000 	0x3000000
 114:	0602c010 	bltzl	s0,ffff0158 <__bbs_end+0x5f7d82b0>
 118:	000001d8 	0x1d8
 11c:	005a4002 	0x5a4002
 120:	10030000 	beq	zero,v1,124 <USER+0x80>
 124:	700902c4 	0x700902c4
 128:	02006469 	0x2006469
 12c:	00007e41 	0x7e41
 130:	c8100300 	lwc2	$16,768(zero)
 134:	02d10602 	0x2d10602
 138:	42020000 	c0	0x20000
 13c:	000001ac 	0x1ac
 140:	02cc1003 	0x2cc1003
 144:	0007cf06 	0x7cf06
 148:	e9430200 	swc2	$3,512(t2)
 14c:	03000001 	0x3000001
 150:	0602d010 	bltzl	s0,ffff4194 <__bbs_end+0x5f7dc2ec>
 154:	000001fa 	dsrl	zero,zero,0x7
 158:	005a4402 	0x5a4402
 15c:	10030000 	beq	zero,v1,160 <NESTED_COUNT+0x20>
 160:	e70602d4 	swc1	$f6,724(t8)
 164:	02000004 	sllv	zero,zero,s0
 168:	00006c45 	0x6c45
 16c:	d8100300 	ldc2	$16,768(zero)
 170:	04860602 	0x4860602
 174:	47020000 	c1	0x1020000
 178:	000001b7 	0x1b7
 17c:	02e01003 	0x2e01003
 180:	00014e06 	0x14e06
 184:	97480200 	lhu	t0,512(k0)
 188:	03000002 	0x3000002
 18c:	0002e410 	0x2e410
 190:	00018a02 	srl	s1,at,0x8
 194:	0a070400 	j	81c1000 <NESTED_COUNT+0x81c0ec0>
 198:	000001ac 	0x1ac
 19c:	0b0d0204 	j	c340810 <NESTED_COUNT+0xc3406d0>
 1a0:	000001e4 	0x1e4
 1a4:	02c40b00 	0x2c40b00
 1a8:	00010000 	sll	zero,at,0x0
 1ac:	00020603 	sra	zero,v0,0x18
 1b0:	97100200 	lhu	s0,512(t8)
 1b4:	03000001 	0x3000001
 1b8:	00000018 	mult	zero,zero
 1bc:	00891202 	0x891202
 1c0:	e90a0000 	swc2	$10,0(t0)
 1c4:	04000001 	bltz	zero,1cc <NESTED_COUNT+0x8c>
 1c8:	370b1402 	ori	t3,t8,0x1402
 1cc:	00000000 	nop
 1d0:	0002740b 	0x2740b
 1d4:	f40b0100 	sdc1	$f11,256(zero)
 1d8:	02000000 	0x2000000
 1dc:	0001be0b 	0x1be0b
 1e0:	2e0b0300 	sltiu	t3,s0,768
 1e4:	04000000 	bltz	zero,1e8 <NESTED_COUNT+0xa8>
 1e8:	016a0300 	0x16a0300
 1ec:	1a020000 	0x1a020000
 1f0:	000001c2 	srl	zero,zero,0x7
 1f4:	00027505 	0x27505
 1f8:	0000a400 	sll	s4,zero,0x10
 1fc:	28029c00 	slti	v0,zero,-25600
 200:	00028c06 	0x28c06
 204:	752a0200 	jalx	4a80800 <NESTED_COUNT+0x4a806c0>
 208:	02000002 	0x2000002
 20c:	cb060010 	lwc2	$6,16(t8)
 210:	02000007 	srav	zero,zero,s0
 214:	00005a2d 	0x5a2d
 218:	80100300 	lb	s0,768(zero)
 21c:	69680901 	ldl	t0,2305(t3)
 220:	5a2e0200 	0x5a2e0200
 224:	03000000 	0x3000000
 228:	09018410 	j	4061040 <NESTED_COUNT+0x4060f00>
 22c:	02006f6c 	0x2006f6c
 230:	00005a2f 	0x5a2f
 234:	88100300 	lwl	s0,768(zero)
 238:	02610601 	0x2610601
 23c:	30020000 	andi	v0,zero,0x0
 240:	0000005a 	0x5a
 244:	018c1003 	0x18c1003
 248:	0002e006 	srlv	gp,v0,zero
 24c:	5a310200 	0x5a310200
 250:	03000000 	0x3000000
 254:	06019010 	bgez	s0,fffe4298 <__bbs_end+0x5f7cc3f0>
 258:	00000178 	dsll	zero,zero,0x5
 25c:	005a3202 	0x5a3202
 260:	10030000 	beq	zero,v1,264 <NESTED_COUNT+0x124>
 264:	70090194 	0x70090194
 268:	33020063 	andi	v0,t8,0x63
 26c:	0000005a 	0x5a
 270:	01981003 	0x1981003
 274:	02850c00 	0x2850c00
 278:	005a0000 	0x5a0000
 27c:	850d0000 	lh	t5,0(t0)
 280:	1f000002 	bgtz	t8,28c <NESTED_COUNT+0x14c>
 284:	018a0200 	0x18a0200
 288:	07040000 	0x7040000
 28c:	0000e803 	sra	sp,zero,0x0
 290:	f4340200 	sdc1	$f20,512(at)
 294:	0e000001 	jal	8000004 <NESTED_COUNT+0x7fffec4>
 298:	013f0304 	0x13f0304
 29c:	4d020000 	bc3fl	2a0 <NESTED_COUNT+0x160>
 2a0:	000000d0 	0xd0
 2a4:	0002cc0f 	0x2cc0f
 2a8:	042a0100 	tlti	at,256
 2ac:	0f010000 	jal	c040000 <NESTED_COUNT+0xc03fec0>
 2b0:	a08022b0 	sb	zero,8880(a0)
 2b4:	a0802354 	sb	zero,9044(a0)
 2b8:	000002c0 	sll	zero,zero,0xb
 2bc:	30106d01 	andi	s0,zero,0x6d01
 2c0:	01000004 	sllv	zero,zero,t0
 2c4:	0002cc11 	0x2cc11
 2c8:	00550100 	0x550100
 2cc:	02990407 	0x2990407
 2d0:	01110000 	0x1110000
 2d4:	0000045c 	0x45c
 2d8:	23542001 	addi	s4,k0,8193
 2dc:	2370a080 	addi	s0,k1,-24448
 2e0:	02e0a080 	0x2e0a080
 2e4:	6d010000 	ldr	at,0(t0)
 2e8:	04c30111 	bgezl	a2,730 <NESTED_COUNT+0x5f0>
 2ec:	29010000 	slti	at,t0,0
 2f0:	a0802370 	sb	zero,9072(a0)
 2f4:	a08024ec 	sb	zero,9452(a0)
 2f8:	000002f0 	tge	zero,zero,0xb
 2fc:	46126d01 	sub.s	$f20,$f13,$f18
 300:	01000003 	0x1000003
 304:	000004e3 	0x4e3
 308:	89013601 	lwl	at,13825(t0)
 30c:	ec000000 	swc3	$0,0(zero)
 310:	2ca08024 	sltiu	zero,a1,-32732
 314:	0ca08025 	jal	2820094 <NESTED_COUNT+0x281ff54>
 318:	01000003 	0x1000003
 31c:	0061136d 	0x61136d
 320:	00ca3601 	0xca3601
 324:	54010000 	bnel	zero,at,328 <NESTED_COUNT+0x1e8>
 328:	01006213 	0x1006213
 32c:	0000ca36 	tne	zero,zero,0x328
 330:	14550100 	bne	v0,s5,734 <NESTED_COUNT+0x5f4>
 334:	37010078 	ori	at,t8,0x78
 338:	000002cc 	syscall	0xb
 33c:	01007914 	0x1007914
 340:	0002cc38 	dsll	t9,v0,0x10
 344:	6f150000 	ldr	s5,0(t8)
 348:	01000003 	0x1000003
 34c:	000004ba 	dsrl	zero,zero,0x12
 350:	2c014101 	sltiu	at,zero,16641
 354:	a4a08025 	sh	zero,-32731(a1)
 358:	1ca08026 	bgtz	a1,fffe03f4 <__bbs_end+0x5f7c854c>
 35c:	01000003 	0x1000003
 360:	044f166d 	0x44f166d
 364:	41010000 	bc0t	368 <NESTED_COUNT+0x228>
 368:	00000089 	0x89
 36c:	17006001 	bnez	t8,18374 <NESTED_COUNT+0x18234>
 370:	00043901 	0x43901
 374:	01510100 	0x1510100
 378:	a08026a4 	sb	zero,9892(a0)
 37c:	a08026c8 	sb	zero,9928(a0)
 380:	00000338 	dsll	zero,zero,0xc
 384:	01176d01 	0x1176d01
 388:	000004f0 	tge	zero,zero,0x13
 38c:	c8015701 	lwc2	$1,22273(zero)
 390:	f4a08026 	sdc1	$f0,-32730(a1)
 394:	50a08026 	beqzl	a1,fffe0430 <__bbs_end+0x5f7c8588>
 398:	01000003 	0x1000003
 39c:	03c6156d 	0x3c6156d
 3a0:	dd010000 	ld	at,0(t0)
 3a4:	01000004 	sllv	zero,zero,t0
 3a8:	26f4015e 	addiu	s4,s7,350
 3ac:	27aca080 	addiu	t4,sp,-24448
 3b0:	0368a080 	0x368a080
 3b4:	6d010000 	ldr	at,0(t0)
 3b8:	00081316 	0x81316
 3bc:	ca5e0100 	lwc2	$30,256(s2)
 3c0:	01000000 	0x1000000
 3c4:	ef150054 	swc3	$21,84(t8)
 3c8:	01000003 	0x1000003
 3cc:	000004db 	0x4db
 3d0:	ac016601 	sw	at,26113(zero)
 3d4:	5ca08027 	bgtzl	a1,fffe0474 <__bbs_end+0x5f7c85cc>
 3d8:	80a08028 	lb	zero,-32728(a1)
 3dc:	01000003 	0x1000003
 3e0:	0547166d 	0x547166d
 3e4:	66010000 	daddiu	at,s0,0
 3e8:	000002cc 	syscall	0xb
 3ec:	12005501 	beqz	s0,157f4 <NESTED_COUNT+0x156b4>
 3f0:	0000041c 	0x41c
 3f4:	00042001 	0x42001
 3f8:	016c0100 	0x16c0100
 3fc:	0000007e 	dsrl32	zero,zero,0x1
 400:	a080285c 	sb	zero,10332(a0)
 404:	a0802890 	sb	zero,10384(a0)
 408:	00000398 	0x398
 40c:	70186d01 	0x70186d01
 410:	01006469 	0x1006469
 414:	00007e6d 	0x7e6d
 418:	00600100 	0x600100
 41c:	04700119 	bltzal	v1,884 <NESTED_COUNT+0x744>
 420:	74010000 	jalx	40000 <NESTED_COUNT+0x3fec0>
 424:	00006c01 	0x6c01
 428:	80289000 	lb	t0,-28672(at)
 42c:	8028a4a0 	lb	t0,-23392(at)
 430:	0003b4a0 	0x3b4a0
 434:	126d0100 	beq	s3,t5,838 <NESTED_COUNT+0x6f8>
 438:	00000464 	0x464
 43c:	00048001 	0x48001
 440:	01780100 	0x1780100
 444:	000001b7 	0x1b7
 448:	a08028a4 	sb	zero,10404(a0)
 44c:	a08028d8 	sb	zero,10456(a0)
 450:	000003c4 	0x3c4
 454:	86106d01 	lh	s0,27905(s0)
 458:	01000004 	sllv	zero,zero,t0
 45c:	0001b779 	0x1b779
 460:	00600100 	0x600100
 464:	00048d15 	0x48d15
 468:	048f0100 	0x48f0100
 46c:	80010000 	lb	at,0(zero)
 470:	8028d801 	lb	t0,-10239(at)
 474:	802920a0 	lb	t1,8352(at)
 478:	0003e0a0 	0x3e0a0
 47c:	166d0100 	bne	s3,t5,880 <NESTED_COUNT+0x740>
 480:	00000486 	0x486
 484:	01b78001 	0x1b78001
 488:	60010000 	daddi	at,zero,0
 48c:	16011900 	bne	s0,at,6890 <NESTED_COUNT+0x6750>
 490:	01000004 	sllv	zero,zero,t0
 494:	006c0188 	0x6c0188
 498:	29200000 	slti	zero,t1,0
 49c:	2928a080 	slti	t0,t1,-24448
 4a0:	03fca080 	0x3fca080
 4a4:	6d010000 	ldr	at,0(t0)
 4a8:	0004cd1a 	0x4cd1a
 4ac:	331d0600 	andi	sp,t8,0x600
 4b0:	01000000 	0x1000000
 4b4:	02411b01 	0x2411b01
 4b8:	0a010000 	j	8040000 <NESTED_COUNT+0x803fec0>
 4bc:	000000bf 	dsra32	zero,zero,0x2
 4c0:	18030501 	0x18030501
 4c4:	1ba0803b 	blez	sp,fffe05b4 <__bbs_end+0x5f7c870c>
 4c8:	000002ab 	0x2ab
 4cc:	00bf0b01 	0xbf0b01
 4d0:	05010000 	bgez	t0,4d4 <NESTED_COUNT+0x394>
 4d4:	803b2403 	lb	k1,9219(at)
 4d8:	04601ba0 	bltz	v1,735c <NESTED_COUNT+0x721c>
 4dc:	09010000 	j	4040000 <NESTED_COUNT+0x403fec0>
 4e0:	000002cc 	syscall	0xb
 4e4:	20030501 	addi	v1,zero,1281
 4e8:	1ba0803b 	blez	sp,fffe05d8 <__bbs_end+0x5f7c8730>
 4ec:	00000442 	srl	zero,zero,0x11
 4f0:	04fd0d01 	0x4fd0d01
 4f4:	05010000 	bgez	t0,4f8 <NESTED_COUNT+0x3b8>
 4f8:	803b1003 	lb	k1,4099(at)
 4fc:	006c1ca0 	0x6c1ca0
 500:	9e1b0000 	lwu	k1,0(s0)
 504:	01000004 	sllv	zero,zero,t0
 508:	00008927 	0x8927
 50c:	03050100 	0x3050100
 510:	a0803ca0 	sb	zero,15520(a0)
	...
Disassembly of section .debug_line.15:

00000000 <.debug_line.15>:
   0:	000000f6 	tne	zero,zero,0x3
   4:	00610002 	0x610002
   8:	01010000 	0x1010000
   c:	000d0efb 	dsra	at,t5,0x1b
  10:	01010101 	0x1010101
  14:	01000000 	0x1000000
  18:	00010000 	sll	zero,at,0x0
  1c:	65686373 	daddiu	t0,t3,25459
  20:	656c7564 	daddiu	t4,t3,30052
  24:	00632e72 	tlt	v1,v1,0xb9
  28:	73000000 	0x73000000
  2c:	64656863 	daddiu	a1,v1,26723
  30:	72656c75 	0x72656c75
  34:	0000682e 	dneg	t5,zero
  38:	79730000 	0x79730000
  3c:	682e636e 	ldl	t6,25454(at)
  40:	00000000 	nop
  44:	75657571 	jalx	595d5c4 <NESTED_COUNT+0x595d484>
  48:	00682e65 	0x682e65
  4c:	63000000 	daddi	zero,t8,0
  50:	6f6d6d6f 	ldr	t5,28015(k1)
  54:	00682e6e 	0x682e6e
  58:	69000000 	ldl	zero,0(t0)
  5c:	7265746e 	0x7265746e
  60:	74707572 	jalx	1c1d5c8 <NESTED_COUNT+0x1c1d488>
  64:	0000682e 	dneg	t5,zero
  68:	00000000 	nop
  6c:	22b00205 	addi	s0,s5,517
  70:	0e03a080 	jal	80e8200 <NESTED_COUNT+0x80e80c0>
  74:	bb87f201 	swr	a3,-3583(gp)
  78:	3c08baf2 	lui	t0,0xbaf2
  7c:	76084bbb 	jalx	8212eec <NESTED_COUNT+0x8212dac>
  80:	420886ba 	c0	0x886ba
  84:	874b49bb 	lh	t3,18875(k0)
  88:	018802bb 	0x18802bb
  8c:	8383f413 	lb	v1,-3053(gp)
  90:	83bb7608 	lb	k1,30216(sp)
  94:	7c02e308 	0x7c02e308
  98:	4ef3ba1a 	c3	0xf3ba1a
  9c:	bbf9827d 	swr	t9,-32131(ra)
  a0:	01840282 	0x1840282
  a4:	24028414 	li	v0,-31724
  a8:	24024814 	li	v0,18452
  ac:	88ba8214 	lwl	k0,-32236(a1)
  b0:	4b4983b5 	c2	0x14983b5
  b4:	03848383 	0x3848383
  b8:	88baf27a 	lwl	k0,-3462(a1)
  bc:	50ba7a03 	beql	a1,k0,1e8cc <NESTED_COUNT+0x1e78c>
  c0:	83838385 	lb	v1,-31867(gp)
  c4:	bb8383bd 	swr	v1,-31811(gp)
  c8:	83864b49 	lb	a2,19273(gp)
  cc:	01840282 	0x1840282
  d0:	83838313 	lb	v1,-31981(gp)
  d4:	028283bd 	0x28283bd
  d8:	83130184 	lb	s3,388(t8)
  dc:	83843f08 	lb	a0,16136(gp)
  e0:	3f088483 	0x3f088483
  e4:	838484bb 	lb	a0,-31557(gp)
  e8:	3e088483 	0x3e088483
  ec:	858383bb 	lh	v1,-31813(t4)
  f0:	84484d47 	lh	t0,19783(v0)
  f4:	000802f5 	0x802f5
  f8:	Address 0x00000000000000f8 is out of bounds.

Disassembly of section .debug_abbrev.16:

00000000 <.debug_abbrev.16>:
   0:	10011101 	beq	zero,at,4408 <NESTED_COUNT+0x42c8>
   4:	11011206 	beq	t0,at,4820 <NESTED_COUNT+0x46e0>
   8:	130e2501 	beq	t8,t6,9410 <NESTED_COUNT+0x92d0>
   c:	1b0e030b 	0x1b0e030b
  10:	0200000e 	0x200000e
  14:	0e030024 	jal	80c0090 <NESTED_COUNT+0x80bff50>
  18:	0b3e0b0b 	j	cf82c2c <NESTED_COUNT+0xcf82aec>
  1c:	16030000 	bne	s0,v1,20 <KERNEL+0x18>
  20:	3a0e0300 	xori	t6,s0,0x300
  24:	490b3b0b 	0x490b3b0b
  28:	04000013 	bltz	zero,78 <STACK+0x4>
  2c:	08030024 	j	c0090 <NESTED_COUNT+0xbff50>
  30:	0b3e0b0b 	j	cf82c2c <NESTED_COUNT+0xcf82aec>
  34:	13050000 	beq	t8,a1,38 <KERNEL+0x30>
  38:	03130101 	0x3130101
  3c:	3a0b0b0e 	xori	t3,s0,0xb0e
  40:	000b3b0b 	0xb3b0b
  44:	000d0600 	sll	zero,t5,0x18
  48:	0b3a0e03 	j	ce8380c <NESTED_COUNT+0xce836cc>
  4c:	13490b3b 	beq	k0,t1,2d3c <NESTED_COUNT+0x2bfc>
  50:	00000a38 	dsll	at,zero,0x8
  54:	0b000f07 	j	c003c1c <NESTED_COUNT+0xc003adc>
  58:	0013490b 	0x13490b
  5c:	01040800 	0x1040800
  60:	0b0b1301 	j	c2c4c04 <NESTED_COUNT+0xc2c4ac4>
  64:	0b3b0b3a 	j	cec2ce8 <NESTED_COUNT+0xcec2ba8>
  68:	28090000 	slti	t1,zero,0
  6c:	1c0e0300 	0x1c0e0300
  70:	0a00000d 	j	8000034 <NESTED_COUNT+0x7fffef4>
  74:	13010113 	beq	t8,at,4c4 <NESTED_COUNT+0x384>
  78:	050b0803 	tltiu	t0,2051
  7c:	0b3b0b3a 	j	cec2ce8 <NESTED_COUNT+0xcec2ba8>
  80:	0d0b0000 	jal	42c0000 <NESTED_COUNT+0x42bfec0>
  84:	3a080300 	xori	t0,s0,0x300
  88:	490b3b0b 	0x490b3b0b
  8c:	000a3813 	0xa3813
  90:	01010c00 	0x1010c00
  94:	13491301 	beq	k0,t1,4c9c <NESTED_COUNT+0x4b5c>
  98:	210d0000 	addi	t5,t0,0
  9c:	2f134900 	sltiu	s3,t8,18688
  a0:	0e00000b 	jal	800002c <NESTED_COUNT+0x7fffeec>
  a4:	0b0b000f 	j	c2c003c <NESTED_COUNT+0xc2bfefc>
  a8:	2e0f0000 	sltiu	t7,s0,0
  ac:	3f130101 	0x3f130101
  b0:	3a0e030c 	xori	t6,s0,0x30c
  b4:	270b3b0b 	addiu	t3,t8,15115
  b8:	1201110c 	beq	s0,at,44ec <NESTED_COUNT+0x43ac>
  bc:	06408101 	bltz	s2,fffe04c4 <__bbs_end+0x5f7c861c>
  c0:	00000a40 	sll	at,zero,0x9
  c4:	03000510 	0x3000510
  c8:	3b0b3a08 	xori	t3,t8,0x3a08
  cc:	0213490b 	0x213490b
  d0:	1100000a 	beqz	t0,fc <USER+0x58>
  d4:	1301012e 	beq	t8,at,590 <NESTED_COUNT+0x450>
  d8:	0e030c3f 	jal	80c30fc <NESTED_COUNT+0x80c2fbc>
  dc:	0b3b0b3a 	j	cec2ce8 <NESTED_COUNT+0xcec2ba8>
  e0:	13490c27 	beq	k0,t1,3180 <NESTED_COUNT+0x3040>
  e4:	01120111 	0x1120111
  e8:	40064081 	0x40064081
  ec:	1200000a 	beqz	s0,118 <USER+0x74>
  f0:	0e030005 	jal	80c0014 <NESTED_COUNT+0x80bfed4>
  f4:	0b3b0b3a 	j	cec2ce8 <NESTED_COUNT+0xcec2ba8>
  f8:	0a021349 	j	8084d24 <NESTED_COUNT+0x8084be4>
  fc:	2e130000 	sltiu	s3,s0,0
 100:	030c3f01 	0x30c3f01
 104:	3b0b3a0e 	xori	t3,t8,0x3a0e
 108:	110c270b 	beq	t0,t4,9d38 <NESTED_COUNT+0x9bf8>
 10c:	81011201 	lb	at,4609(t0)
 110:	0a400640 	j	9001900 <NESTED_COUNT+0x90017c0>
 114:	Address 0x0000000000000114 is out of bounds.

Disassembly of section .debug_info.17:

00000000 <.debug_info.17>:
   0:	0000058d 	break	0x0,0x16
   4:	00000002 	srl	zero,zero,0x0
   8:	01040000 	0x1040000
   c:	00000000 	nop
  10:	a0802990 	sb	zero,10640(a0)
  14:	a0802930 	sb	zero,10544(a0)
  18:	00000118 	0x118
  1c:	00058d01 	0x58d01
  20:	00021b00 	sll	v1,v0,0xc
  24:	015e0200 	0x15e0200
  28:	06010000 	bgez	s0,2c <KERNEL+0x24>
  2c:	00005402 	srl	t2,zero,0x10
  30:	02050200 	0x2050200
  34:	0000007c 	dsll32	zero,zero,0x1
  38:	77020504 	jalx	c081410 <NESTED_COUNT+0xc0812d0>
  3c:	08000000 	j	0 <KERNEL-0x8>
  40:	015c0205 	0x15c0205
  44:	08010000 	j	40000 <NESTED_COUNT+0x3fec0>
  48:	0001c502 	srl	t8,at,0x14
  4c:	03070200 	0x3070200
  50:	00000197 	0x197
  54:	005a4405 	0x5a4405
  58:	85020000 	lh	v0,0(t0)
  5c:	04000001 	bltz	zero,64 <KERNEL+0x5c>
  60:	004b0307 	0x4b0307
  64:	45050000 	0x45050000
  68:	0000006c 	0x6c
  6c:	00018002 	srl	s0,at,0x0
  70:	03070800 	0x3070800
  74:	0000026e 	0x26e
  78:	007e4705 	0x7e4705
  7c:	69040000 	ldl	a0,0(t0)
  80:	0400746e 	bltz	zero,1d23c <NESTED_COUNT+0x1d0fc>
  84:	00ae0505 	0xae0505
  88:	01270000 	0x1270000
  8c:	03080000 	0x3080000
  90:	01730608 	0x1730608
  94:	09030000 	j	40c0000 <NESTED_COUNT+0x40bfec0>
  98:	000000ae 	0xae
  9c:	06001002 	bltz	s0,40a8 <NESTED_COUNT+0x3f68>
  a0:	000002db 	0x2db
  a4:	00ae0903 	0xae0903
  a8:	10020000 	beq	zero,v0,ac <USER+0x8>
  ac:	04070004 	0x4070004
  b0:	00000085 	0x85
  b4:	0001a003 	sra	s4,at,0x0
  b8:	850a0300 	lh	t2,768(t0)
  bc:	08000000 	j	0 <KERNEL-0x8>
  c0:	000000d4 	0xd4
  c4:	090d0204 	j	4340810 <NESTED_COUNT+0x43406d0>
  c8:	00000600 	sll	zero,zero,0x18
  cc:	00f50900 	0xf50900
  d0:	00010000 	sll	zero,at,0x0
  d4:	00010b05 	0x10b05
  d8:	00015700 	sll	t2,at,0x1c
  dc:	0c021000 	jal	84000 <NESTED_COUNT+0x83ec0>
  e0:	0007cf06 	0x7cf06
  e4:	bf100200 	cache	0x10,512(t8)
  e8:	02000000 	0x2000000
  ec:	13060010 	beq	t8,a2,130 <USER+0x8c>
  f0:	02000008 	jr	s0
  f4:	0000b411 	0xb411
  f8:	04100200 	bltzal	zero,8fc <NESTED_COUNT+0x7bc>
  fc:	00054206 	0x54206
 100:	cb120200 	lwc2	$18,512(t8)
 104:	02000001 	0x2000001
 108:	0a000c10 	j	8003040 <NESTED_COUNT+0x8002f00>
 10c:	000001cb 	0x1cb
 110:	00626370 	tge	v1,v0,0x18d
 114:	12020168 	beq	s0,v0,6b8 <NESTED_COUNT+0x578>
 118:	00012706 	0x12706
 11c:	b43a0400 	sdr	k0,1024(at)
 120:	02000000 	0x2000000
 124:	57060010 	bnel	t8,a2,168 <NESTED_COUNT+0x28>
 128:	04000002 	bltz	zero,134 <USER+0x90>
 12c:	0003743b 	dsra	t6,v1,0x10
 130:	08100200 	j	400800 <NESTED_COUNT+0x4006c0>
 134:	00001006 	srlv	v0,zero,zero
 138:	743c0400 	jalx	f01000 <NESTED_COUNT+0xf00ec0>
 13c:	03000003 	0x3000003
 140:	0601a410 	bgez	s0,fffe9184 <__bbs_end+0x5f7d12dc>
 144:	00000097 	0x97
 148:	007e3e04 	0x7e3e04
 14c:	10030000 	beq	zero,v1,150 <NESTED_COUNT+0x10>
 150:	d80602c0 	ldc2	$6,704(zero)
 154:	04000001 	bltz	zero,15c <NESTED_COUNT+0x1c>
 158:	00004f40 	sll	t1,zero,0x1d
 15c:	c4100300 	lwc1	$f16,768(zero)
 160:	69700b02 	ldl	s0,2818(t3)
 164:	41040064 	0x41040064
 168:	00000073 	tltu	zero,zero,0x1
 16c:	02c81003 	0x2c81003
 170:	0002d106 	0x2d106
 174:	94420400 	lhu	v0,1024(v0)
 178:	03000002 	0x3000002
 17c:	0602cc10 	bltzl	s0,ffff31c0 <__bbs_end+0x5f7db318>
 180:	000007cf 	0x7cf
 184:	02d14304 	0x2d14304
 188:	10030000 	beq	zero,v1,18c <NESTED_COUNT+0x4c>
 18c:	fa0602d0 	sdc2	$6,720(s0)
 190:	04000001 	bltz	zero,198 <NESTED_COUNT+0x58>
 194:	00004f44 	0x4f44
 198:	d4100300 	ldc1	$f16,768(zero)
 19c:	04e70602 	0x4e70602
 1a0:	45040000 	0x45040000
 1a4:	00000061 	0x61
 1a8:	02d81003 	0x2d81003
 1ac:	00048606 	0x48606
 1b0:	9f470400 	lwu	a3,1024(k0)
 1b4:	03000002 	0x3000002
 1b8:	0602e010 	bltzl	s0,ffff81fc <__bbs_end+0x5f7e0354>
 1bc:	0000014e 	0x14e
 1c0:	037f4804 	sllv	t1,ra,k1
 1c4:	10030000 	beq	zero,v1,1c8 <NESTED_COUNT+0x88>
 1c8:	070002e4 	bltz	t8,d5c <NESTED_COUNT+0xc1c>
 1cc:	00010b04 	0x10b04
 1d0:	05140300 	0x5140300
 1d4:	13020000 	beq	t8,v0,1d8 <NESTED_COUNT+0x98>
 1d8:	000000d4 	0xd4
 1dc:	0001f705 	0x1f705
 1e0:	0005d600 	sll	k0,a1,0x18
 1e4:	16020800 	bne	s0,v0,21e8 <NESTED_COUNT+0x20a8>
 1e8:	00081306 	0x81306
 1ec:	b4170200 	sdr	s7,512(zero)
 1f0:	02000000 	0x2000000
 1f4:	03000010 	0x3000010
 1f8:	00000554 	0x554
 1fc:	01dc1802 	0x1dc1802
 200:	2b050000 	slti	a1,t8,0
 204:	1b000002 	blez	t8,210 <NESTED_COUNT+0xd0>
 208:	0c000005 	jal	14 <KERNEL+0xc>
 20c:	2f061b02 	sltiu	a2,t8,6914
 210:	02000005 	0x2000005
 214:	00022b1c 	0x22b1c
 218:	00100200 	sll	zero,s0,0x8
 21c:	00081306 	0x81306
 220:	b41d0200 	sdr	sp,512(zero)
 224:	02000000 	0x2000000
 228:	02000410 	0x2000410
 22c:	0000018a 	0x18a
 230:	94030704 	lhu	v1,1796(zero)
 234:	02000005 	0x2000005
 238:	0002021e 	0x2021e
 23c:	02740500 	0x2740500
 240:	054c0000 	teqi	t2,0
 244:	02100000 	0x2100000
 248:	060e0621 	tnei	s0,1569
 24c:	22020000 	addi	v0,s0,0
 250:	0000022b 	0x22b
 254:	06001002 	bltz	s0,4260 <NESTED_COUNT+0x4120>
 258:	00000609 	0x609
 25c:	022b2302 	0x22b2302
 260:	10020000 	beq	zero,v0,264 <NESTED_COUNT+0x124>
 264:	08130604 	j	4c1810 <NESTED_COUNT+0x4c16d0>
 268:	24020000 	li	v0,0
 26c:	000000b4 	teq	zero,zero,0x2
 270:	00081002 	srl	v0,t0,0x0
 274:	00052503 	sra	a0,a1,0x14
 278:	3d250200 	0x3d250200
 27c:	08000002 	j	8 <KERNEL>
 280:	00000294 	0x294
 284:	090d0404 	j	4341010 <NESTED_COUNT+0x4340ed0>
 288:	000001e4 	0x1e4
 28c:	02c40900 	0x2c40900
 290:	00010000 	sll	zero,at,0x0
 294:	00020603 	sra	zero,v0,0x18
 298:	7f100400 	0x7f100400
 29c:	03000002 	0x3000002
 2a0:	00000018 	mult	zero,zero
 2a4:	007e1204 	0x7e1204
 2a8:	d1080000 	lld	t0,0(t0)
 2ac:	04000002 	bltz	zero,2b8 <NESTED_COUNT+0x178>
 2b0:	37091404 	ori	t1,t8,0x1404
 2b4:	00000000 	nop
 2b8:	00027409 	0x27409
 2bc:	f4090100 	sdc1	$f9,256(zero)
 2c0:	02000000 	0x2000000
 2c4:	0001be09 	0x1be09
 2c8:	2e090300 	sltiu	t1,s0,768
 2cc:	04000000 	bltz	zero,2d0 <NESTED_COUNT+0x190>
 2d0:	016a0300 	0x16a0300
 2d4:	1a040000 	0x1a040000
 2d8:	000002aa 	0x2aa
 2dc:	00035d05 	0x35d05
 2e0:	0000a400 	sll	s4,zero,0x10
 2e4:	28049c00 	slti	a0,zero,-25600
 2e8:	00028c06 	0x28c06
 2ec:	5d2a0400 	0x5d2a0400
 2f0:	02000003 	0x2000003
 2f4:	cb060010 	lwc2	$6,16(t8)
 2f8:	04000007 	bltz	zero,318 <NESTED_COUNT+0x1d8>
 2fc:	00004f2d 	0x4f2d
 300:	80100300 	lb	s0,768(zero)
 304:	69680b01 	ldl	t0,2817(t3)
 308:	4f2e0400 	c3	0x12e0400
 30c:	03000000 	0x3000000
 310:	0b018410 	j	c061040 <NESTED_COUNT+0xc060f00>
 314:	04006f6c 	bltz	zero,1c0c8 <NESTED_COUNT+0x1bf88>
 318:	00004f2f 	0x4f2f
 31c:	88100300 	lwl	s0,768(zero)
 320:	02610601 	0x2610601
 324:	30040000 	andi	a0,zero,0x0
 328:	0000004f 	0x4f
 32c:	018c1003 	0x18c1003
 330:	0002e006 	srlv	gp,v0,zero
 334:	4f310400 	c3	0x1310400
 338:	03000000 	0x3000000
 33c:	06019010 	bgez	s0,fffe4380 <__bbs_end+0x5f7cc4d8>
 340:	00000178 	dsll	zero,zero,0x5
 344:	004f3204 	0x4f3204
 348:	10030000 	beq	zero,v1,34c <NESTED_COUNT+0x20c>
 34c:	700b0194 	0x700b0194
 350:	33040063 	andi	a0,t8,0x63
 354:	0000004f 	0x4f
 358:	01981003 	0x1981003
 35c:	036d0c00 	0x36d0c00
 360:	004f0000 	0x4f0000
 364:	6d0d0000 	ldr	t5,0(t0)
 368:	1f000003 	bgtz	t8,378 <NESTED_COUNT+0x238>
 36c:	018a0200 	0x18a0200
 370:	07040000 	0x7040000
 374:	0000e803 	sra	sp,zero,0x0
 378:	dc340400 	ld	s4,1024(at)
 37c:	0e000002 	jal	8000008 <NESTED_COUNT+0x7fffec8>
 380:	03a80f04 	0x3a80f04
 384:	83010000 	lb	at,0(t8)
 388:	01000005 	0x1000005
 38c:	29300122 	slti	s0,t1,290
 390:	2938a080 	slti	t8,t1,-24448
 394:	041ca080 	0x41ca080
 398:	6d010000 	ldr	at,0(t0)
 39c:	01006c10 	0x1006c10
 3a0:	0003a822 	neg	s5,v1
 3a4:	00540100 	0x540100
 3a8:	01d10407 	0x1d10407
 3ac:	d9110000 	ldc2	$17,0(t0)
 3b0:	01000003 	0x1000003
 3b4:	000004f8 	dsll	zero,zero,0x13
 3b8:	7e014901 	0x7e014901
 3bc:	38000000 	xori	zero,zero,0x0
 3c0:	40a08029 	0x40a08029
 3c4:	2ca08029 	sltiu	zero,a1,-32727
 3c8:	01000004 	sllv	zero,zero,t0
 3cc:	006c106d 	0x6c106d
 3d0:	03a84901 	0x3a84901
 3d4:	54010000 	bnel	zero,at,3d8 <NESTED_COUNT+0x298>
 3d8:	04000f00 	bltz	zero,3fdc <NESTED_COUNT+0x3e9c>
 3dc:	c9010000 	lwc2	$1,0(t0)
 3e0:	01000005 	0x1000005
 3e4:	2940015a 	slti	zero,t2,346
 3e8:	2948a080 	slti	t0,t2,-24448
 3ec:	043ca080 	0x43ca080
 3f0:	6d010000 	ldr	at,0(t0)
 3f4:	01006c10 	0x1006c10
 3f8:	0003a85a 	0x3a85a
 3fc:	00540100 	0x540100
 400:	0004270f 	0x4270f
 404:	05ba0100 	0x5ba0100
 408:	63010000 	daddi	at,t8,0
 40c:	80294801 	lb	t1,18433(at)
 410:	802950a0 	lb	t1,20640(at)
 414:	00044ca0 	0x44ca0
 418:	106d0100 	beq	v1,t5,81c <NESTED_COUNT+0x6dc>
 41c:	63010063 	daddi	at,t8,99
 420:	00000427 	0x427
 424:	07005401 	bltz	t8,1542c <NESTED_COUNT+0x152ec>
 428:	0001f704 	0x1f704
 42c:	045f0f00 	0x45f0f00
 430:	e0010000 	sc	at,0(zero)
 434:	01000005 	0x1000005
 438:	2950016a 	slti	s0,t2,362
 43c:	2958a080 	slti	t8,t2,-24448
 440:	045ca080 	0x45ca080
 444:	6d010000 	ldr	at,0(t0)
 448:	01006d10 	0x1006d10
 44c:	0003a86a 	0x3a86a
 450:	10540100 	beq	v0,s4,854 <NESTED_COUNT+0x714>
 454:	6a010063 	ldl	at,99(s0)
 458:	00000427 	0x427
 45c:	0f005501 	jal	c015404 <NESTED_COUNT+0xc0152c4>
 460:	00000486 	0x486
 464:	0005ef01 	0x5ef01
 468:	01750100 	0x1750100
 46c:	a0802958 	sb	zero,10584(a0)
 470:	a0802960 	sb	zero,10592(a0)
 474:	0000046c 	0x46c
 478:	63106d01 	daddi	s0,t8,27905
 47c:	27750100 	addiu	s5,k1,256
 480:	01000004 	sllv	zero,zero,t0
 484:	ad0f0054 	sw	t7,84(t0)
 488:	01000004 	sllv	zero,zero,t0
 48c:	00000560 	0x560
 490:	60018001 	daddi	at,zero,-32767
 494:	68a08029 	ldl	zero,-32727(a1)
 498:	7ca08029 	0x7ca08029
 49c:	01000004 	sllv	zero,zero,t0
 4a0:	0063106d 	0x63106d
 4a4:	04278001 	0x4278001
 4a8:	54010000 	bnel	zero,at,4ac <NESTED_COUNT+0x36c>
 4ac:	04e10f00 	bgez	a3,40b0 <NESTED_COUNT+0x3f70>
 4b0:	74010000 	jalx	40000 <NESTED_COUNT+0x3fec0>
 4b4:	01000005 	0x1000005
 4b8:	2968018b 	slti	t0,t3,395
 4bc:	2970a080 	slti	s0,t3,-24448
 4c0:	048ca080 	teqi	a0,-24448
 4c4:	6d010000 	ldr	at,0(t0)
 4c8:	01007310 	0x1007310
 4cc:	0004e18b 	0x4e18b
 4d0:	12540100 	beq	s2,s4,8d4 <NESTED_COUNT+0x794>
 4d4:	0000052f 	0x52f
 4d8:	007e8b01 	0x7e8b01
 4dc:	55010000 	bnel	t0,at,4e0 <NESTED_COUNT+0x3a0>
 4e0:	32040700 	andi	a0,s0,0x700
 4e4:	0f000002 	jal	c000008 <NESTED_COUNT+0xbfffec8>
 4e8:	0000050e 	0x50e
 4ec:	00053501 	0x53501
 4f0:	01920100 	0x1920100
 4f4:	a0802970 	sb	zero,10608(a0)
 4f8:	a0802978 	sb	zero,10616(a0)
 4fc:	0000049c 	0x49c
 500:	73106d01 	0x73106d01
 504:	e1920100 	sc	s2,256(t4)
 508:	01000004 	sllv	zero,zero,t0
 50c:	350f0054 	ori	t7,t0,0x54
 510:	01000005 	0x1000005
 514:	00000505 	0x505
 518:	7801a001 	0x7801a001
 51c:	80a08029 	lb	zero,-32727(a1)
 520:	aca08029 	sw	zero,-32727(a1)
 524:	01000004 	sllv	zero,zero,t0
 528:	0073106d 	0x73106d
 52c:	04e1a001 	bgez	a3,fffe8534 <__bbs_end+0x5f7d068c>
 530:	54010000 	bnel	zero,at,534 <NESTED_COUNT+0x3f4>
 534:	05670f00 	0x5670f00
 538:	a0010000 	sb	at,0(zero)
 53c:	01000005 	0x1000005
 540:	298001ae 	slti	zero,t4,430
 544:	2988a080 	slti	t0,t4,-24448
 548:	04bca080 	0x4bca080
 54c:	6d010000 	ldr	at,0(t0)
 550:	01006210 	0x1006210
 554:	000567ae 	0x567ae
 558:	10540100 	beq	v0,s4,95c <NESTED_COUNT+0x81c>
 55c:	ae01006e 	sw	at,110(s0)
 560:	0000007e 	dsrl32	zero,zero,0x1
 564:	07005501 	bltz	t8,1596c <NESTED_COUNT+0x1582c>
 568:	00027404 	0x27404
 56c:	ad011300 	sw	at,4864(t0)
 570:	01000005 	0x1000005
 574:	298801b6 	slti	t0,t4,438
 578:	2990a080 	slti	s0,t4,-24448
 57c:	04cca080 	teqi	a2,-24448
 580:	6d010000 	ldr	at,0(t0)
 584:	01006210 	0x1006210
 588:	000567b6 	tne	zero,a1,0x19e
 58c:	00540100 	0x540100
	...
Disassembly of section .debug_line.18:

00000000 <.debug_line.18>:
   0:	0000007d 	0x7d
   4:	004d0002 	0x4d0002
   8:	01010000 	0x1010000
   c:	000d0efb 	dsra	at,t5,0x1b
  10:	01010101 	0x1010101
  14:	01000000 	0x1000000
  18:	00010000 	sll	zero,at,0x0
  1c:	636e7973 	daddi	t6,k1,31091
  20:	0000632e 	0x632e
  24:	79730000 	0x79730000
  28:	682e636e 	ldl	t6,25454(at)
  2c:	00000000 	nop
  30:	75657571 	jalx	595d5c4 <NESTED_COUNT+0x595d484>
  34:	00682e65 	0x682e65
  38:	73000000 	0x73000000
  3c:	64656863 	daddiu	a1,v1,26723
  40:	72656c75 	0x72656c75
  44:	0000682e 	dneg	t5,zero
  48:	6f630000 	ldr	v1,0(k1)
  4c:	6e6f6d6d 	ldr	t7,28013(s3)
  50:	0000682e 	dneg	t5,zero
  54:	00000000 	nop
  58:	29300205 	slti	s0,t1,517
  5c:	2103a080 	addi	v1,t0,-24448
  60:	82270301 	lb	a3,769(s1)
  64:	03821103 	0x3821103
  68:	03898209 	0x3898209
  6c:	0b03820b 	j	c0e082c <NESTED_COUNT+0xc0e06ec>
  70:	820b0382 	lb	t3,898(s0)
  74:	820e0389 	lb	t6,905(s0)
  78:	8a820e03 	lwl	v0,3587(s4)
  7c:	01000802 	0x1000802
  80:	Address 0x0000000000000080 is out of bounds.

Disassembly of section .debug_abbrev.19:

00000000 <.debug_abbrev.19>:
   0:	10011101 	beq	zero,at,4408 <NESTED_COUNT+0x42c8>
   4:	11011206 	beq	t0,at,4820 <NESTED_COUNT+0x46e0>
   8:	130e2501 	beq	t8,t6,9410 <NESTED_COUNT+0x92d0>
   c:	1b0e030b 	0x1b0e030b
  10:	0200000e 	0x200000e
  14:	0e030024 	jal	80c0090 <NESTED_COUNT+0x80bff50>
  18:	0b3e0b0b 	j	cf82c2c <NESTED_COUNT+0xcf82aec>
  1c:	16030000 	bne	s0,v1,20 <KERNEL+0x18>
  20:	3a0e0300 	xori	t6,s0,0x300
  24:	490b3b0b 	0x490b3b0b
  28:	04000013 	bltz	zero,78 <STACK+0x4>
  2c:	08030024 	j	c0090 <NESTED_COUNT+0xbff50>
  30:	0b3e0b0b 	j	cf82c2c <NESTED_COUNT+0xcf82aec>
  34:	2e050000 	sltiu	a1,s0,0
  38:	3f130101 	0x3f130101
  3c:	3a0e030c 	xori	t6,s0,0x30c
  40:	270b3b0b 	addiu	t3,t8,15115
  44:	1201110c 	beq	s0,at,4478 <NESTED_COUNT+0x4338>
  48:	06408101 	bltz	s2,fffe0450 <__bbs_end+0x5f7c85a8>
  4c:	00000a40 	sll	at,zero,0x9
  50:	03000506 	0x3000506
  54:	3b0b3a08 	xori	t3,t8,0x3a08
  58:	0213490b 	0x213490b
  5c:	0700000a 	bltz	t8,88 <STACK+0x14>
  60:	08030034 	j	c00d0 <NESTED_COUNT+0xbff90>
  64:	0b3b0b3a 	j	cec2ce8 <NESTED_COUNT+0xcec2ba8>
  68:	0a021349 	j	8084d24 <NESTED_COUNT+0x8084be4>
  6c:	34080000 	li	t0,0x0
  70:	3a0e0300 	xori	t6,s0,0x300
  74:	490b3b0b 	0x490b3b0b
  78:	000a0213 	0xa0213
  7c:	000f0900 	sll	at,t7,0x4
  80:	13490b0b 	beq	k0,t1,2cb0 <NESTED_COUNT+0x2b70>
  84:	050a0000 	tlti	t0,0
  88:	3a0e0300 	xori	t6,s0,0x300
  8c:	490b3b0b 	0x490b3b0b
  90:	000a0213 	0xa0213
  94:	012e0b00 	0x12e0b00
  98:	0c3f1301 	jal	fc4c04 <NESTED_COUNT+0xfc4ac4>
  9c:	0b3a0e03 	j	ce8380c <NESTED_COUNT+0xce836cc>
  a0:	0c270b3b 	jal	9c2cec <NESTED_COUNT+0x9c2bac>
  a4:	01111349 	0x1111349
  a8:	40810112 	0x40810112
  ac:	000a4006 	srlv	t0,t2,zero
  b0:	01010c00 	0x1010c00
  b4:	13491301 	beq	k0,t1,4cbc <NESTED_COUNT+0x4b7c>
  b8:	210d0000 	addi	t5,t0,0
  bc:	2f134900 	sltiu	s3,t8,18688
  c0:	0e00000b 	jal	800002c <NESTED_COUNT+0x7fffeec>
  c4:	08030034 	j	c00d0 <NESTED_COUNT+0xbff90>
  c8:	0b3b0b3a 	j	cec2ce8 <NESTED_COUNT+0xcec2ba8>
  cc:	00001349 	0x1349
  d0:	3f002e0f 	0x3f002e0f
  d4:	3a0e030c 	xori	t6,s0,0x30c
  d8:	270b3b0b 	addiu	t3,t8,15115
  dc:	1113490c 	beq	t0,s3,12510 <NESTED_COUNT+0x123d0>
  e0:	81011201 	lb	at,4609(t0)
  e4:	0a400640 	j	9001900 <NESTED_COUNT+0x90017c0>
  e8:	34100000 	li	s0,0x0
  ec:	3a0e0300 	xori	t6,s0,0x300
  f0:	490b3b0b 	0x490b3b0b
  f4:	020c3f13 	0x20c3f13
  f8:	0000000a 	0xa
Disassembly of section .debug_info.20:

00000000 <.debug_info.20>:
   0:	000005de 	0x5de
   4:	00000002 	srl	zero,zero,0x0
   8:	01040000 	0x1040000
   c:	00000000 	nop
  10:	a0802fe8 	sb	zero,12264(a0)
  14:	a0802990 	sb	zero,10640(a0)
  18:	00000118 	0x118
  1c:	00062a01 	0x62a01
  20:	00021b00 	sll	v1,v0,0xc
  24:	015e0200 	0x15e0200
  28:	06010000 	bgez	s0,2c <KERNEL+0x24>
  2c:	00005402 	srl	t2,zero,0x10
  30:	02050200 	0x2050200
  34:	0000007c 	dsll32	zero,zero,0x1
  38:	77020504 	jalx	c081410 <NESTED_COUNT+0xc0812d0>
  3c:	08000000 	j	0 <KERNEL-0x8>
  40:	015c0205 	0x15c0205
  44:	08010000 	j	40000 <NESTED_COUNT+0x3fec0>
  48:	0001c502 	srl	t8,at,0x14
  4c:	03070200 	0x3070200
  50:	00000197 	0x197
  54:	005a4402 	0x5a4402
  58:	85020000 	lh	v0,0(t0)
  5c:	04000001 	bltz	zero,64 <KERNEL+0x5c>
  60:	01800207 	0x1800207
  64:	07080000 	tgei	t8,0
  68:	746e6904 	jalx	1b9a410 <NESTED_COUNT+0x1b9a2d0>
  6c:	05050400 	0x5050400
  70:	000000ae 	0xae
  74:	00062101 	0x62101
  78:	010b0100 	0x10b0100
  7c:	a0802990 	sb	zero,10640(a0)
  80:	a08029d0 	sb	zero,10704(a0)
  84:	000004ec 	0x4ec
  88:	73066d01 	0x73066d01
  8c:	ae0b0100 	sw	t3,256(s0)
  90:	01000000 	0x1000000
  94:	00690754 	0x690754
  98:	00680c01 	0x680c01
  9c:	53010000 	beql	t8,at,a0 <STACK+0x2c>
  a0:	00023c08 	0x23c08
  a4:	5a0d0100 	0x5a0d0100
  a8:	01000000 	0x1000000
  ac:	04090052 	tgeiu	zero,82
  b0:	000000b4 	teq	zero,zero,0x2
  b4:	00016502 	srl	t4,at,0x14
  b8:	05060100 	0x5060100
  bc:	000000ef 	0xef
  c0:	00061501 	0x61501
  c4:	01240100 	0x1240100
  c8:	a08029d0 	sb	zero,10704(a0)
  cc:	a0802a08 	sb	zero,10760(a0)
  d0:	000004fc 	dsll32	zero,zero,0x13
  d4:	73066d01 	0x73066d01
  d8:	ae240100 	sw	a0,256(s1)
  dc:	01000000 	0x1000000
  e0:	061b0a60 	0x61b0a60
  e4:	24010000 	li	at,0
  e8:	000000ae 	0xae
  ec:	05005501 	bltz	t0,154f4 <NESTED_COUNT+0x153b4>
  f0:	00000137 	0x137
  f4:	00067b01 	0x67b01
  f8:	012a0100 	0x12a0100
  fc:	a0802a08 	sb	zero,10760(a0)
 100:	a0802a60 	sb	zero,10848(a0)
 104:	00000518 	0x518
 108:	68076d01 	ldl	a3,27905(zero)
 10c:	412b0100 	0x412b0100
 110:	01000000 	0x1000000
 114:	00690755 	0x690755
 118:	00412b01 	0x412b01
 11c:	54010000 	bnel	zero,at,120 <USER+0x7c>
 120:	01006a07 	0x1006a07
 124:	0000412b 	0x412b
 128:	07530100 	bgezall	k0,52c <NESTED_COUNT+0x3ec>
 12c:	2b01006b 	slti	at,t8,107
 130:	00000041 	0x41
 134:	0b005201 	j	c014804 <NESTED_COUNT+0xc0146c4>
 138:	0000016d 	0x16d
 13c:	00069e01 	0x69e01
 140:	01a70100 	0x1a70100
 144:	00000068 	0x68
 148:	a0802a60 	sb	zero,10848(a0)
 14c:	a0802a84 	sb	zero,10884(a0)
 150:	00000528 	0x528
 154:	73066d01 	0x73066d01
 158:	aea60100 	sw	a2,256(s5)
 15c:	01000000 	0x1000000
 160:	006e0754 	0x6e0754
 164:	0068a801 	0x68a801
 168:	53010000 	beql	t8,at,16c <NESTED_COUNT+0x2c>
 16c:	01c60500 	0x1c60500
 170:	67010000 	daddiu	at,t8,0
 174:	01000006 	srlv	zero,zero,t0
 178:	2a840156 	slti	a0,s4,342
 17c:	2b04a080 	slti	a0,t8,-24448
 180:	0538a080 	0x538a080
 184:	6d010000 	ldr	at,0(t0)
 188:	0004eb0a 	0x4eb0a
 18c:	68550100 	ldl	s5,256(v0)
 190:	01000000 	0x1000000
 194:	6f630664 	ldr	v1,1636(k1)
 198:	5501006c 	bnel	t0,at,34c <NESTED_COUNT+0x20c>
 19c:	00000068 	0x68
 1a0:	73066201 	0x73066201
 1a4:	01007274 	teq	t0,zero,0x1c9
 1a8:	0000ae55 	0xae55
 1ac:	07630100 	bgezl	k1,5b0 <NESTED_COUNT+0x470>
 1b0:	57010069 	bnel	t8,at,358 <NESTED_COUNT+0x218>
 1b4:	00000068 	0x68
 1b8:	6e076001 	ldr	a3,24577(s0)
 1bc:	68570100 	ldl	s7,256(v0)
 1c0:	01000000 	0x1000000
 1c4:	fc0b0061 	sd	t3,97(zero)
 1c8:	01000001 	0x1000001
 1cc:	00000676 	tne	zero,zero,0x19
 1d0:	4f017101 	c3	0x1017101
 1d4:	04000000 	bltz	zero,1d8 <NESTED_COUNT+0x98>
 1d8:	5ca0802b 	bgtzl	a1,fffe0288 <__bbs_end+0x5f7c83e0>
 1dc:	60a0802b 	daddi	zero,a1,-32725
 1e0:	01000005 	0x1000005
 1e4:	0073066d 	0x73066d
 1e8:	00ae7001 	0xae7001
 1ec:	56010000 	bnel	s0,at,1f0 <NESTED_COUNT+0xb0>
 1f0:	01006e07 	0x1006e07
 1f4:	00006872 	tlt	zero,zero,0x1a1
 1f8:	00570100 	0x570100
 1fc:	00024405 	0x24405
 200:	06910100 	bgezal	s4,604 <NESTED_COUNT+0x4c4>
 204:	9b010000 	lwr	at,0(t8)
 208:	802b5c01 	lb	t3,23553(at)
 20c:	802bb4a0 	lb	t3,-19296(at)
 210:	000570a0 	0x570a0
 214:	066d0100 	0x66d0100
 218:	9a010073 	lwr	at,115(s0)
 21c:	000000ae 	0xae
 220:	63076001 	daddi	a3,t8,24577
 224:	689c0100 	ldl	gp,256(a0)
 228:	01000000 	0x1000000
 22c:	00690756 	0x690756
 230:	00689c01 	0x689c01
 234:	58010000 	0x58010000
 238:	01006a07 	0x1006a07
 23c:	0000689c 	0x689c
 240:	00570100 	0x570100
 244:	00028c05 	0x28c05
 248:	06db0100 	0x6db0100
 24c:	8a010000 	lwl	at,0(s0)
 250:	802bb401 	lb	t3,-19455(at)
 254:	802c0ca0 	lb	t4,3232(at)
 258:	00058ca0 	0x58ca0
 25c:	066d0100 	0x66d0100
 260:	8901006e 	lwl	at,110(t0)
 264:	0000004f 	0x4f
 268:	73065401 	0x73065401
 26c:	ae890100 	sw	t1,256(s4)
 270:	01000000 	0x1000000
 274:	00690755 	0x690755
 278:	00688b01 	0x688b01
 27c:	56010000 	bnel	s0,at,280 <NESTED_COUNT+0x140>
 280:	01006407 	0x1006407
 284:	0000688b 	0x688b
 288:	00520100 	0x520100
 28c:	0002f305 	0x2f305
 290:	06b60100 	0x6b60100
 294:	48010000 	mfc2	at,$0
 298:	802c0c01 	lb	t4,3073(at)
 29c:	802ca4a0 	lb	t4,-23392(at)
 2a0:	00059ca0 	0x59ca0
 2a4:	0a6d0100 	j	9b40400 <NESTED_COUNT+0x9b402c0>
 2a8:	000004eb 	0x4eb
 2ac:	00684701 	0x684701
 2b0:	54010000 	bnel	zero,at,2b4 <NESTED_COUNT+0x174>
 2b4:	6c6f6306 	ldr	t7,25350(v1)
 2b8:	68470100 	ldl	a3,256(v0)
 2bc:	01000000 	0x1000000
 2c0:	756e0664 	jalx	5b81990 <NESTED_COUNT+0x5b81850>
 2c4:	4701006d 	c1	0x101006d
 2c8:	0000004f 	0x4f
 2cc:	69075601 	ldl	a3,22017(t0)
 2d0:	68490100 	ldl	t1,256(v0)
 2d4:	01000000 	0x1000000
 2d8:	006e0760 	0x6e0760
 2dc:	00684901 	0x684901
 2e0:	61010000 	daddi	at,t0,0
 2e4:	66756207 	daddiu	s5,s3,25095
 2e8:	f34a0100 	scd	t2,256(k0)
 2ec:	02000002 	0x2000002
 2f0:	0c001091 	jal	4244 <NESTED_COUNT+0x4104>
 2f4:	00000303 	sra	zero,zero,0xc
 2f8:	000000b4 	teq	zero,zero,0x2
 2fc:	0003030d 	break	0x3,0xc
 300:	02000b00 	0x2000b00
 304:	0000018a 	0x18a
 308:	47050704 	c1	0x1050704
 30c:	01000003 	0x1000003
 310:	00000671 	tgeu	zero,zero,0x19
 314:	a4017d01 	sh	at,32001(zero)
 318:	f8a0802c 	sdc2	$0,-32724(a1)
 31c:	c4a0802c 	lwc1	$f0,-32724(a1)
 320:	01000005 	0x1000005
 324:	006e066d 	0x6e066d
 328:	004f7c01 	0x4f7c01
 32c:	56010000 	bnel	s0,at,330 <NESTED_COUNT+0x1f0>
 330:	01007306 	0x1007306
 334:	0000ae7c 	dsll32	s5,zero,0x19
 338:	07550100 	0x7550100
 33c:	7e010069 	0x7e010069
 340:	00000068 	0x68
 344:	05005701 	bltz	t0,15f4c <NESTED_COUNT+0x15e0c>
 348:	000003bb 	dsra	zero,zero,0xe
 34c:	00063a01 	0x63a01
 350:	01340100 	0x1340100
 354:	a0802cf8 	sb	zero,11512(a0)
 358:	a0802dc0 	sb	zero,11712(a0)
 35c:	000005d4 	0x5d4
 360:	eb0a6d01 	swc2	$10,27905(t8)
 364:	01000004 	sllv	zero,zero,t0
 368:	00006833 	tltu	zero,zero,0x1a0
 36c:	06630100 	bgezl	s3,770 <NESTED_COUNT+0x630>
 370:	006c6f63 	0x6c6f63
 374:	00683301 	0x683301
 378:	61010000 	daddi	at,t0,0
 37c:	6d756e06 	ldr	s5,28166(t3)
 380:	68330100 	ldl	s3,256(at)
 384:	01000000 	0x1000000
 388:	00690756 	0x690756
 38c:	00683501 	0x683501
 390:	60010000 	daddi	at,zero,0
 394:	01006e07 	0x1006e07
 398:	00006835 	0x6835
 39c:	08620100 	j	1880400 <NESTED_COUNT+0x18802c0>
 3a0:	00000631 	tgeu	zero,zero,0x18
 3a4:	00683501 	0x683501
 3a8:	60010000 	daddi	at,zero,0
 3ac:	66756207 	daddiu	s5,s3,25095
 3b0:	f3360100 	scd	s6,256(t9)
 3b4:	02000002 	0x2000002
 3b8:	05001091 	bltz	t0,4600 <NESTED_COUNT+0x44c0>
 3bc:	00000409 	0x409
 3c0:	0000ca01 	0xca01
 3c4:	01160100 	0x1160100
 3c8:	a0802dc0 	sb	zero,11712(a0)
 3cc:	a0802e3c 	sb	zero,11836(a0)
 3d0:	000005fc 	dsll32	zero,zero,0x17
 3d4:	78066d01 	0x78066d01
 3d8:	68160100 	ldl	s6,256(zero)
 3dc:	01000000 	0x1000000
 3e0:	00790660 	0x790660
 3e4:	00681601 	0x681601
 3e8:	61010000 	daddi	at,t0,0
 3ec:	0006ce08 	0x6ce08
 3f0:	09180100 	j	4600400 <NESTED_COUNT+0x46002c0>
 3f4:	02000004 	sllv	zero,zero,s0
 3f8:	5c081091 	0x5c081091
 3fc:	01000006 	srlv	zero,zero,t0
 400:	0004091e 	0x4091e
 404:	30910200 	andi	s1,a0,0x200
 408:	04190c00 	0x4190c00
 40c:	00b40000 	0xb40000
 410:	030d0000 	0x30d0000
 414:	1f000003 	bgtz	t8,424 <NESTED_COUNT+0x2e4>
 418:	04860500 	0x4860500
 41c:	44010000 	mfc1	at,$f0
 420:	01000006 	srlv	zero,zero,t0
 424:	2e3c0161 	sltiu	gp,s1,353
 428:	2ea0a080 	sltiu	zero,s5,-24448
 42c:	061ca080 	0x61ca080
 430:	6d010000 	ldr	at,0(t0)
 434:	0006a50a 	0x6a50a
 438:	68600100 	ldl	zero,256(v1)
 43c:	01000000 	0x1000000
 440:	06c90a54 	tgeiu	s6,2644
 444:	60010000 	daddi	at,zero,0
 448:	00000068 	0x68
 44c:	510a5501 	beql	t0,t2,15854 <NESTED_COUNT+0x15714>
 450:	01000006 	srlv	zero,zero,t0
 454:	00006860 	0x6860
 458:	0a560100 	j	9580400 <NESTED_COUNT+0x95802c0>
 45c:	00000662 	0x662
 460:	00686001 	0x686001
 464:	62010000 	daddi	at,s0,0
 468:	0100690e 	0x100690e
 46c:	00006862 	0x6862
 470:	006a0700 	0x6a0700
 474:	00686201 	0x686201
 478:	60010000 	daddi	at,zero,0
 47c:	01006b0e 	0x1006b0e
 480:	00006862 	0x6862
 484:	be0b0000 	cache	0xb,0(s0)
 488:	01000004 	sllv	zero,zero,t0
 48c:	000006aa 	0x6aa
 490:	6801b001 	ldl	at,-20479(zero)
 494:	a0000000 	sb	zero,0(zero)
 498:	04a0802e 	bltz	a1,fffe0554 <__bbs_end+0x5f7c86ac>
 49c:	3ca0802f 	0x3ca0802f
 4a0:	01000006 	srlv	zero,zero,t0
 4a4:	3173066d 	andi	s3,t3,0x66d
 4a8:	aeaf0100 	sw	t7,256(s5)
 4ac:	01000000 	0x1000000
 4b0:	32730654 	andi	s3,s3,0x654
 4b4:	aeaf0100 	sw	t7,256(s5)
 4b8:	01000000 	0x1000000
 4bc:	0c050055 	jal	140154 <NESTED_COUNT+0x140014>
 4c0:	01000005 	0x1000005
 4c4:	0000068b 	0x68b
 4c8:	0401bd01 	b	fffef8d0 <__bbs_end+0x5f7d7a28>
 4cc:	6ca0802f 	ldr	zero,-32721(a1)
 4d0:	4ca0802f 	0x4ca0802f
 4d4:	01000006 	srlv	zero,zero,t0
 4d8:	07c00a6d 	bltz	s8,2e90 <NESTED_COUNT+0x2d50>
 4dc:	bc010000 	cache	0x1,0(zero)
 4e0:	000000ae 	0xae
 4e4:	d40a5801 	ldc1	$f10,22529(zero)
 4e8:	01000006 	srlv	zero,zero,t0
 4ec:	0000aebc 	dsll32	s5,zero,0x1a
 4f0:	0a550100 	j	9540400 <NESTED_COUNT+0x95402c0>
 4f4:	00000609 	0x609
 4f8:	0068bc01 	0x68bc01
 4fc:	56010000 	bnel	s0,at,500 <NESTED_COUNT+0x3c0>
 500:	01006907 	0x1006907
 504:	000068be 	dsrl32	t5,zero,0x2
 508:	00570100 	0x570100
 50c:	00054d05 	0x54d05
 510:	06560100 	0x6560100
 514:	ce010000 	lwc3	$1,0(s0)
 518:	802f6c01 	lb	t7,27649(at)
 51c:	802f90a0 	lb	t7,-28512(at)
 520:	00065ca0 	0x65ca0
 524:	0a6d0100 	j	9b40400 <NESTED_COUNT+0x9b402c0>
 528:	000006e8 	0x6e8
 52c:	00aecd01 	0xaecd01
 530:	54010000 	bnel	zero,at,534 <NESTED_COUNT+0x3f4>
 534:	0006090a 	0x6090a
 538:	68cd0100 	ldl	t5,256(a2)
 53c:	01000000 	0x1000000
 540:	00690755 	0x690755
 544:	0068cf01 	0x68cf01
 548:	56010000 	bnel	s0,at,54c <NESTED_COUNT+0x40c>
 54c:	05760500 	0x5760500
 550:	e2010000 	sc	at,0(s0)
 554:	01000006 	srlv	zero,zero,t0
 558:	2f9001d8 	sltiu	s0,gp,472
 55c:	2f9ca080 	sltiu	gp,gp,-24448
 560:	066ca080 	teqi	s3,-24448
 564:	6d010000 	ldr	at,0(t0)
 568:	0006990a 	0x6990a
 56c:	4fd70100 	c3	0x1d70100
 570:	01000000 	0x1000000
 574:	a30b0054 	sb	t3,84(t8)
 578:	01000005 	0x1000005
 57c:	000006ed 	0x6ed
 580:	4f01e701 	c3	0x101e701
 584:	9c000000 	lwu	zero,0(zero)
 588:	b8a0802f 	swr	zero,-32721(a1)
 58c:	7ca0802f 	0x7ca0802f
 590:	01000006 	srlv	zero,zero,t0
 594:	06990a6d 	0x6990a6d
 598:	e6010000 	swc1	$f1,0(s0)
 59c:	0000004f 	0x4f
 5a0:	0f005401 	jal	c015004 <NESTED_COUNT+0xc014ec4>
 5a4:	0006e301 	0x6e301
 5a8:	01de0100 	0x1de0100
 5ac:	0000004f 	0x4f
 5b0:	a0802fb8 	sb	zero,12216(a0)
 5b4:	a0802fe8 	sb	zero,12264(a0)
 5b8:	0000068c 	syscall	0x1a
 5bc:	82106d01 	lb	s0,27905(s0)
 5c0:	01000006 	srlv	zero,zero,t0
 5c4:	00006806 	srlv	t5,zero,zero
 5c8:	03050100 	0x3050100
 5cc:	a0803cb0 	sb	zero,15536(a0)
 5d0:	0006c008 	0x6c008
 5d4:	4fd50100 	c3	0x1d50100
 5d8:	05000000 	bltz	t0,5dc <NESTED_COUNT+0x49c>
 5dc:	803cb403 	lb	gp,-19453(at)
 5e0:	Address 0x00000000000005e0 is out of bounds.

Disassembly of section .debug_line.21:

00000000 <.debug_line.21>:
   0:	00000110 	0x110
   4:	00290002 	0x290002
   8:	01010000 	0x1010000
   c:	000d0efb 	dsra	at,t5,0x1b
  10:	01010101 	0x1010101
  14:	01000000 	0x1000000
  18:	00010000 	sll	zero,at,0x0
  1c:	6c697475 	ldr	t1,29813(v1)
  20:	0000632e 	0x632e
  24:	6f630000 	ldr	v1,0(k1)
  28:	6e6f6d6d 	ldr	t7,28013(s3)
  2c:	0000682e 	dneg	t5,zero
  30:	00000000 	nop
  34:	29900205 	slti	s0,t4,517
  38:	1103a080 	beq	t0,v1,fffe823c <__bbs_end+0x5f7d0394>
  3c:	b84f4501 	swr	t7,17665(v0)
  40:	03824bf3 	tltu	gp,v0,0x12f
  44:	83f3f212 	lb	s3,-3566(ra)
  48:	4b790883 	c2	0x1790883
  4c:	3b084b4b 	xori	t0,t8,0x4b4b
  50:	81828182 	lb	v0,-32382(t4)
  54:	00fd0382 	0xfd0382
  58:	8549f3f2 	lh	t1,-3086(t2)
  5c:	827faa03 	lb	ra,-22013(s3)
  60:	3c0847bd 	lui	t0,0x47bd
  64:	f283bc4d 	scd	v1,-17331(s4)
  68:	18034a81 	0x18034a81
  6c:	48012802 	0x48012802
  70:	1448024c 	bne	v0,t0,9a4 <NESTED_COUNT+0x864>
  74:	bd822603 	cache	0x2,9731(t4)
  78:	494b3d08 	0x494b3d08
  7c:	48bc484b 	0x48bc484b
  80:	74086f03 	jalx	21bc0c <NESTED_COUNT+0x21bacc>
  84:	7d854789 	0x7d854789
  88:	4a474c4c 	c2	0x474c4c
  8c:	83834986 	lb	v1,18822(gp)
  90:	7fb20383 	0x7fb20383
  94:	86464e82 	lh	a2,20098(s2)
  98:	bb84f646 	swr	a0,-2490(gp)
  9c:	4a81f2f3 	c2	0x81f2f3
  a0:	022c0384 	0x22c0384
  a4:	854a012c 	lh	t2,300(t2)
  a8:	132c024c 	beq	t9,t4,9dc <NESTED_COUNT+0x89c>
  ac:	af038383 	sw	v1,-31869(t8)
  b0:	4686827f 	c1	0x86827f
  b4:	834f3c08 	lb	t7,15368(k0)
  b8:	8483bc4c 	lh	v1,-17332(a0)
  bc:	4a81f2f3 	c2	0x81f2f3
  c0:	0f2c0284 	jal	cb00a10 <NESTED_COUNT+0xcb008d0>
  c4:	55033d08 	bnel	t0,v1,f4e8 <NESTED_COUNT+0xf3a8>
  c8:	8381bb82 	lb	at,-17534(gp)
  cc:	4c84bb85 	0x4c84bb85
  d0:	83bb8448 	lb	k1,-31672(sp)
  d4:	0800c003 	j	3000c <NESTED_COUNT+0x2fecc>
  d8:	f2474de4 	scd	a3,19940(s2)
  dc:	4cb9bb4d 	0x4cb9bb4d
  e0:	d1034a80 	lld	v1,19072(t0)
  e4:	08e40800 	j	3902000 <NESTED_COUNT+0x3901ec0>
  e8:	08857fe4 	j	215ff90 <NESTED_COUNT+0x215fe50>
  ec:	037dbb76 	tne	k1,sp,0x2ed
  f0:	4a85820d 	c2	0x85820d
  f4:	4ab98383 	c2	0xb98383
  f8:	82b983f5 	lb	t9,-31755(s5)
  fc:	83f20a03 	lb	s2,2563(ra)
 100:	03fa8249 	0x3fa8249
 104:	3d08ba0f 	0x3d08ba0f
 108:	83827503 	lb	v0,29955(gp)
 10c:	02bc4b81 	0x2bc4b81
 110:	01010010 	0x1010010
Disassembly of section .debug_abbrev.22:

00000000 <.debug_abbrev.22>:
   0:	10011101 	beq	zero,at,4408 <NESTED_COUNT+0x42c8>
   4:	11011206 	beq	t0,at,4820 <NESTED_COUNT+0x46e0>
   8:	130e2501 	beq	t8,t6,9410 <NESTED_COUNT+0x92d0>
   c:	1b0e030b 	0x1b0e030b
  10:	0200000e 	0x200000e
  14:	0e030024 	jal	80c0090 <NESTED_COUNT+0x80bff50>
  18:	0b3e0b0b 	j	cf82c2c <NESTED_COUNT+0xcf82aec>
  1c:	24030000 	li	v1,0
  20:	0b080300 	j	c200c00 <NESTED_COUNT+0xc200ac0>
  24:	000b3e0b 	0xb3e0b
  28:	01130400 	0x1130400
  2c:	0e031301 	jal	80c4c04 <NESTED_COUNT+0x80c4ac4>
  30:	0b3a0b0b 	j	ce82c2c <NESTED_COUNT+0xce82aec>
  34:	00000b3b 	dsra	at,zero,0xc
  38:	03000d05 	0x3000d05
  3c:	3b0b3a0e 	xori	t3,t8,0x3a0e
  40:	3813490b 	xori	s3,zero,0x490b
  44:	0600000a 	bltz	s0,70 <KERNEL+0x68>
  48:	0b0b000f 	j	c2c003c <NESTED_COUNT+0xc2bfefc>
  4c:	00001349 	0x1349
  50:	03001607 	0x3001607
  54:	3b0b3a0e 	xori	t3,t8,0x3a0e
  58:	0013490b 	0x13490b
  5c:	01150800 	0x1150800
  60:	0c271301 	jal	9c4c04 <NESTED_COUNT+0x9c4ac4>
  64:	00001349 	0x1349
  68:	49000509 	bc2f	1490 <NESTED_COUNT+0x1350>
  6c:	0a000013 	j	800004c <NESTED_COUNT+0x7ffff0c>
  70:	1301012e 	beq	t8,at,52c <NESTED_COUNT+0x3ec>
  74:	0e030c3f 	jal	80c30fc <NESTED_COUNT+0x80c2fbc>
  78:	0b3b0b3a 	j	cec2ce8 <NESTED_COUNT+0xcec2ba8>
  7c:	01110c27 	0x1110c27
  80:	40810112 	0x40810112
  84:	000a4006 	srlv	t0,t2,zero
  88:	00050b00 	sll	at,a1,0xc
  8c:	0b3a0e03 	j	ce8380c <NESTED_COUNT+0xce836cc>
  90:	13490b3b 	beq	k0,t1,2d80 <NESTED_COUNT+0x2c40>
  94:	00000a02 	srl	at,zero,0x8
  98:	01012e0c 	syscall	0x404b8
  9c:	030c3f13 	0x30c3f13
  a0:	3b0b3a0e 	xori	t3,t8,0x3a0e
  a4:	490c270b 	0x490c270b
  a8:	12011113 	beq	s0,at,44f8 <NESTED_COUNT+0x43b8>
  ac:	06408101 	bltz	s2,fffe04b4 <__bbs_end+0x5f7c860c>
  b0:	00000a40 	sll	at,zero,0x9
  b4:	0300340d 	break	0x300,0xd0
  b8:	3b0b3a0e 	xori	t3,t8,0x3a0e
  bc:	0213490b 	0x213490b
  c0:	0e00000a 	jal	8000028 <NESTED_COUNT+0x7fffee8>
  c4:	0c3f012e 	jal	fc04b8 <NESTED_COUNT+0xfc0378>
  c8:	0b3a0e03 	j	ce8380c <NESTED_COUNT+0xce836cc>
  cc:	0c270b3b 	jal	9c2cec <NESTED_COUNT+0x9c2bac>
  d0:	01120111 	0x1120111
  d4:	40064081 	0x40064081
  d8:	0f00000a 	jal	c000028 <NESTED_COUNT+0xbfffee8>
  dc:	08030005 	j	c0014 <NESTED_COUNT+0xbfed4>
  e0:	0b3b0b3a 	j	cec2ce8 <NESTED_COUNT+0xcec2ba8>
  e4:	0a021349 	j	8084d24 <NESTED_COUNT+0x8084be4>
  e8:	Address 0x00000000000000e8 is out of bounds.

Disassembly of section .debug_info.23:

00000000 <.debug_info.23>:
   0:	00000204 	0x204
   4:	00000002 	srl	zero,zero,0x0
   8:	01040000 	0x1040000
   c:	00000000 	nop
  10:	a0803120 	sb	zero,12576(a0)
  14:	a0802ff0 	sb	zero,12272(a0)
  18:	00000118 	0x118
  1c:	00071d01 	0x71d01
  20:	00021b00 	sll	v1,v0,0xc
  24:	015e0200 	0x15e0200
  28:	06010000 	bgez	s0,2c <KERNEL+0x24>
  2c:	00005402 	srl	t2,zero,0x10
  30:	02050200 	0x2050200
  34:	0000007c 	dsll32	zero,zero,0x1
  38:	77020504 	jalx	c081410 <NESTED_COUNT+0xc0812d0>
  3c:	08000000 	j	0 <KERNEL-0x8>
  40:	015c0205 	0x15c0205
  44:	08010000 	j	40000 <NESTED_COUNT+0x3fec0>
  48:	0001c502 	srl	t8,at,0x14
  4c:	02070200 	0x2070200
  50:	00000185 	0x185
  54:	80020704 	lb	v0,1796(zero)
  58:	08000001 	j	4 <KERNEL-0x4>
  5c:	6e690307 	ldr	t1,775(s3)
  60:	05040074 	0x5040074
  64:	00008d04 	0x8d04
  68:	00012700 	sll	a0,at,0x1c
  6c:	08020800 	j	82000 <NESTED_COUNT+0x81ec0>
  70:	00017305 	0x17305
  74:	8d090200 	lw	t1,512(t0)
  78:	02000000 	0x2000000
  7c:	db050010 	ldc2	$5,16(t8)
  80:	02000002 	0x2000002
  84:	00008d09 	0x8d09
  88:	04100200 	bltzal	zero,88c <NESTED_COUNT+0x74c>
  8c:	64040600 	daddiu	a0,zero,1536
  90:	07000000 	bltz	t8,94 <STACK+0x20>
  94:	000001a0 	0x1a0
  98:	00640a02 	0x640a02
  9c:	32070000 	andi	a3,s0,0x0
  a0:	02000007 	srav	zero,zero,s0
  a4:	0000a925 	0xa925
  a8:	af040600 	sw	a0,1536(t8)
  ac:	08000000 	j	0 <KERNEL-0x8>
  b0:	000000c4 	0xc4
  b4:	00005d01 	0x5d01
  b8:	00c40900 	0xc40900
  bc:	c4090000 	lwc1	$f9,0(zero)
  c0:	00000000 	nop
  c4:	00930406 	0x930406
  c8:	f30a0000 	scd	t2,0(t8)
  cc:	01000000 	0x1000000
  d0:	00000705 	0x705
  d4:	f0010701 	scd	at,1793(zero)
  d8:	fca0802f 	sd	zero,-32721(a1)
  dc:	b8a0802f 	swr	zero,-32721(a1)
  e0:	01000006 	srlv	zero,zero,t0
  e4:	08180b6d 	j	602db4 <NESTED_COUNT+0x602c74>
  e8:	07010000 	bgez	t8,ec <USER+0x48>
  ec:	000000c4 	0xc4
  f0:	0c005401 	jal	15004 <NESTED_COUNT+0x14ec4>
  f4:	0000012d 	0x12d
  f8:	00072a01 	0x72a01
  fc:	010b0100 	0x10b0100
 100:	000000c4 	0xc4
 104:	a0802ffc 	sb	zero,12284(a0)
 108:	a080302c 	sb	zero,12332(a0)
 10c:	000006c8 	0x6c8
 110:	180b6d01 	0x180b6d01
 114:	01000008 	jr	t0
 118:	0000c40b 	0xc40b
 11c:	0d540100 	jal	5500400 <NESTED_COUNT+0x55002c0>
 120:	00000725 	0x725
 124:	00c40c01 	0xc40c01
 128:	55010000 	bnel	t0,at,12c <USER+0x88>
 12c:	01630a00 	0x1630a00
 130:	15010000 	bne	t0,at,134 <USER+0x90>
 134:	01000007 	srav	zero,zero,t0
 138:	302c011b 	andi	t4,at,0x11b
 13c:	3048a080 	andi	t0,v0,0xa080
 140:	06d8a080 	0x6d8a080
 144:	6d010000 	ldr	at,0(t0)
 148:	0008180b 	0x8180b
 14c:	c41b0100 	lwc1	$f27,256(zero)
 150:	01000000 	0x1000000
 154:	07250b54 	0x7250b54
 158:	1b010000 	0x1b010000
 15c:	000000c4 	0xc4
 160:	0c005501 	jal	15404 <NESTED_COUNT+0x152c4>
 164:	00000190 	0x190
 168:	0006f701 	0x6f701
 16c:	01220100 	0x1220100
 170:	0000005d 	0x5d
 174:	a0803048 	sb	zero,12360(a0)
 178:	a0803058 	sb	zero,12376(a0)
 17c:	000006e8 	0x6e8
 180:	180b6d01 	0x180b6d01
 184:	01000008 	jr	t0
 188:	0000c422 	0xc422
 18c:	00540100 	0x540100
 190:	0001bd0c 	syscall	0x6f4
 194:	07100100 	bltzal	t8,598 <NESTED_COUNT+0x458>
 198:	29010000 	slti	at,t0,0
 19c:	0000c401 	0xc401
 1a0:	80305800 	lb	s0,22528(at)
 1a4:	803070a0 	lb	s0,28832(at)
 1a8:	0006f8a0 	0x6f8a0
 1ac:	0b6d0100 	j	db40400 <NESTED_COUNT+0xdb402c0>
 1b0:	00000818 	0x818
 1b4:	00c42901 	0xc42901
 1b8:	54010000 	bnel	zero,at,1bc <NESTED_COUNT+0x7c>
 1bc:	3b010e00 	xori	at,t8,0xe00
 1c0:	01000007 	srav	zero,zero,t0
 1c4:	30700130 	andi	s0,v1,0x130
 1c8:	3120a080 	andi	zero,t1,0xa080
 1cc:	0708a080 	tgei	t8,-24448
 1d0:	6d010000 	ldr	at,0(t0)
 1d4:	0100710f 	0x100710f
 1d8:	0000c430 	tge	zero,zero,0x310
 1dc:	0f610100 	jal	d840400 <NESTED_COUNT+0xd8402c0>
 1e0:	00746c65 	0x746c65
 1e4:	00c43001 	0xc43001
 1e8:	62010000 	daddi	at,s0,0
 1ec:	65746c0f 	daddiu	s4,t3,27663
 1f0:	9e300100 	lwu	s0,256(s1)
 1f4:	01000000 	0x1000000
 1f8:	07000d63 	bltz	t8,3788 <NESTED_COUNT+0x3648>
 1fc:	31010000 	andi	at,t0,0x0
 200:	000000c4 	0xc4
 204:	00006001 	0x6001
Disassembly of section .debug_line.24:

00000000 <.debug_line.24>:
   0:	00000062 	0x62
   4:	00290002 	0x290002
   8:	01010000 	0x1010000
   c:	000d0efb 	dsra	at,t5,0x1b
  10:	01010101 	0x1010101
  14:	01000000 	0x1000000
  18:	00010000 	sll	zero,at,0x0
  1c:	75657571 	jalx	595d5c4 <NESTED_COUNT+0x595d484>
  20:	00632e65 	0x632e65
  24:	71000000 	0x71000000
  28:	65756575 	daddiu	s5,t3,25973
  2c:	0000682e 	dneg	t5,zero
  30:	00000000 	nop
  34:	2ff00205 	sltiu	s0,ra,517
  38:	c019a080 	ll	t9,-24448(zero)
  3c:	85bb884b 	lh	k1,-30645(t5)
  40:	4b4b4bf5 	c2	0x14b4bf5
  44:	4b864d47 	c2	0x1864d47
  48:	854a854d 	lh	t2,-31411(t2)
  4c:	7608844b 	jalx	822112c <NESTED_COUNT+0x8220fec>
  50:	83f28448 	lb	s2,-31672(ra)
  54:	3c0881ba 	lui	t0,0x81ba
  58:	83820c03 	lb	v0,3075(gp)
  5c:	08bb3b08 	j	2ecec20 <NESTED_COUNT+0x2eceae0>
  60:	0008023b 	dsra	zero,t0,0x8
  64:	Address 0x0000000000000064 is out of bounds.

Disassembly of section .debug_abbrev.25:

00000000 <.debug_abbrev.25>:
	...
Disassembly of section .debug_line.27:

00000000 <.debug_line.27>:
   0:	00000019 	multu	zero,zero
   4:	00130002 	srl	zero,s3,0x0
   8:	01010000 	0x1010000
   c:	000d0efb 	dsra	at,t5,0x1b
  10:	01010101 	0x1010101
  14:	01000000 	0x1000000
  18:	00010000 	sll	zero,at,0x0
	...
Disassembly of section .debug_abbrev.28:

00000000 <.debug_abbrev.28>:
   0:	10011101 	beq	zero,at,4408 <NESTED_COUNT+0x42c8>
   4:	11011206 	beq	t0,at,4820 <NESTED_COUNT+0x46e0>
   8:	130e2501 	beq	t8,t6,9410 <NESTED_COUNT+0x92d0>
   c:	1b0e030b 	0x1b0e030b
  10:	0200000e 	0x200000e
  14:	0e030024 	jal	80c0090 <NESTED_COUNT+0x80bff50>
  18:	0b3e0b0b 	j	cf82c2c <NESTED_COUNT+0xcf82aec>
  1c:	16030000 	bne	s0,v1,20 <KERNEL+0x18>
  20:	3a0e0300 	xori	t6,s0,0x300
  24:	490b3b0b 	0x490b3b0b
  28:	04000013 	bltz	zero,78 <STACK+0x4>
  2c:	08030024 	j	c0090 <NESTED_COUNT+0xbff50>
  30:	0b3e0b0b 	j	cf82c2c <NESTED_COUNT+0xcf82aec>
  34:	13050000 	beq	t8,a1,38 <KERNEL+0x30>
  38:	03130101 	0x3130101
  3c:	3a0b0b0e 	xori	t3,s0,0xb0e
  40:	000b3b0b 	0xb3b0b
  44:	000d0600 	sll	zero,t5,0x18
  48:	0b3a0e03 	j	ce8380c <NESTED_COUNT+0xce836cc>
  4c:	13490b3b 	beq	k0,t1,2d3c <NESTED_COUNT+0x2bfc>
  50:	00000a38 	dsll	at,zero,0x8
  54:	0b000f07 	j	c003c1c <NESTED_COUNT+0xc003adc>
  58:	0013490b 	0x13490b
  5c:	01130800 	0x1130800
  60:	08031301 	j	c4c04 <NESTED_COUNT+0xc4ac4>
  64:	0b3a050b 	j	ce8142c <NESTED_COUNT+0xce812ec>
  68:	00000b3b 	dsra	at,zero,0xc
  6c:	03000d09 	0x3000d09
  70:	3b0b3a08 	xori	t3,t8,0x3a08
  74:	3813490b 	xori	s3,zero,0x490b
  78:	0a00000a 	j	8000028 <NESTED_COUNT+0x7fffee8>
  7c:	13010104 	beq	t8,at,490 <NESTED_COUNT+0x350>
  80:	0b3a0b0b 	j	ce82c2c <NESTED_COUNT+0xce82aec>
  84:	00000b3b 	dsra	at,zero,0xc
  88:	0300280b 	0x300280b
  8c:	000d1c0e 	0xd1c0e
  90:	01010c00 	0x1010c00
  94:	13491301 	beq	k0,t1,4c9c <NESTED_COUNT+0x4b5c>
  98:	210d0000 	addi	t5,t0,0
  9c:	2f134900 	sltiu	s3,t8,18688
  a0:	0e00000b 	jal	800002c <NESTED_COUNT+0x7fffeec>
  a4:	0b0b000f 	j	c2c003c <NESTED_COUNT+0xc2bfefc>
  a8:	2e0f0000 	sltiu	t7,s0,0
  ac:	3f130101 	0x3f130101
  b0:	3a0e030c 	xori	t6,s0,0x30c
  b4:	270b3b0b 	addiu	t3,t8,15115
  b8:	1201110c 	beq	s0,at,44ec <NESTED_COUNT+0x43ac>
  bc:	06408101 	bltz	s2,fffe04c4 <__bbs_end+0x5f7c861c>
  c0:	00000a40 	sll	at,zero,0x9
  c4:	03003410 	0x3003410
  c8:	3b0b3a08 	xori	t3,t8,0x3a08
  cc:	0213490b 	0x213490b
  d0:	1100000a 	beqz	t0,fc <USER+0x58>
  d4:	0e030034 	jal	80c00d0 <NESTED_COUNT+0x80bff90>
  d8:	0b3b0b3a 	j	cec2ce8 <NESTED_COUNT+0xcec2ba8>
  dc:	0a021349 	j	8084d24 <NESTED_COUNT+0x8084be4>
  e0:	2e120000 	sltiu	s2,s0,0
  e4:	3f130101 	0x3f130101
  e8:	3a0e030c 	xori	t6,s0,0x30c
  ec:	490b3b0b 	0x490b3b0b
  f0:	000c3c13 	0xc3c13
  f4:	00181300 	sll	v0,t8,0xc
  f8:	2e140000 	sltiu	s4,s0,0
  fc:	030c3f01 	0x30c3f01
 100:	3b0b3a0e 	xori	t3,t8,0x3a0e
 104:	3c13490b 	lui	s3,0x490b
 108:	1500000c 	bnez	t0,13c <USER+0x98>
 10c:	0e030005 	jal	80c0014 <NESTED_COUNT+0x80bfed4>
 110:	0b3b0b3a 	j	cec2ce8 <NESTED_COUNT+0xcec2ba8>
 114:	0a021349 	j	8084d24 <NESTED_COUNT+0x8084be4>
 118:	2e160000 	sltiu	s6,s0,0
 11c:	3f130101 	0x3f130101
 120:	3a0e030c 	xori	t6,s0,0x30c
 124:	110b3b0b 	beq	t0,t3,ed54 <NESTED_COUNT+0xec14>
 128:	81011201 	lb	at,4609(t0)
 12c:	0a400640 	j	9001900 <NESTED_COUNT+0x90017c0>
 130:	05170000 	0x5170000
 134:	3a080300 	xori	t0,s0,0x300
 138:	490b3b0b 	0x490b3b0b
 13c:	000a0213 	0xa0213
 140:	01151800 	0x1151800
 144:	13491301 	beq	k0,t1,4d4c <NESTED_COUNT+0x4c0c>
 148:	34190000 	li	t9,0x0
 14c:	3a0e0300 	xori	t6,s0,0x300
 150:	490b3b0b 	0x490b3b0b
 154:	3c0c3f13 	lui	t4,0x3f13
 158:	1a00000c 	blez	s0,18c <NESTED_COUNT+0x4c>
 15c:	13490035 	beq	k0,t1,234 <NESTED_COUNT+0xf4>
 160:	341b0000 	li	k1,0x0
 164:	3a0e0300 	xori	t6,s0,0x300
 168:	490b3b0b 	0x490b3b0b
 16c:	020c3f13 	0x20c3f13
 170:	0000000a 	0xa
Disassembly of section .debug_info.29:

00000000 <.debug_info.29>:
   0:	00000419 	0x419
   4:	00000002 	srl	zero,zero,0x0
   8:	01040000 	0x1040000
   c:	00000000 	nop
  10:	a0803440 	sb	zero,13376(a0)
  14:	a0803120 	sb	zero,12576(a0)
  18:	00000118 	0x118
  1c:	00078a01 	0x78a01
  20:	00021b00 	sll	v1,v0,0xc
  24:	015e0200 	0x15e0200
  28:	06010000 	bgez	s0,2c <KERNEL+0x24>
  2c:	00005402 	srl	t2,zero,0x10
  30:	02050200 	0x2050200
  34:	0000007c 	dsll32	zero,zero,0x1
  38:	77020504 	jalx	c081410 <NESTED_COUNT+0xc0812d0>
  3c:	08000000 	j	0 <KERNEL-0x8>
  40:	015c0205 	0x15c0205
  44:	08010000 	j	40000 <NESTED_COUNT+0x3fec0>
  48:	0001c502 	srl	t8,at,0x14
  4c:	03070200 	0x3070200
  50:	00000197 	0x197
  54:	005a4402 	0x5a4402
  58:	85020000 	lh	v0,0(t0)
  5c:	04000001 	bltz	zero,64 <KERNEL+0x5c>
  60:	004b0307 	0x4b0307
  64:	45020000 	bc1fl	68 <KERNEL+0x60>
  68:	0000006c 	0x6c
  6c:	00018002 	srl	s0,at,0x0
  70:	03070800 	0x3070800
  74:	0000026e 	0x26e
  78:	007e4702 	0x7e4702
  7c:	69040000 	ldl	a0,0(t0)
  80:	0400746e 	bltz	zero,1d23c <NESTED_COUNT+0x1d0fc>
  84:	00ae0505 	0xae0505
  88:	01270000 	0x1270000
  8c:	06080000 	tgei	s0,0
  90:	01730608 	0x1730608
  94:	09060000 	j	4180000 <NESTED_COUNT+0x417fec0>
  98:	000000ae 	0xae
  9c:	06001002 	bltz	s0,40a8 <NESTED_COUNT+0x3f68>
  a0:	000002db 	0x2db
  a4:	00ae0906 	0xae0906
  a8:	10020000 	beq	zero,v0,ac <USER+0x8>
  ac:	04070004 	0x4070004
  b0:	00000085 	0x85
  b4:	0001a003 	sra	s4,at,0x0
  b8:	850a0600 	lh	t2,1536(t0)
  bc:	08000000 	j	0 <KERNEL-0x8>
  c0:	0000017f 	dsra32	zero,zero,0x5
  c4:	00626370 	tge	v1,v0,0x18d
  c8:	12050168 	beq	s0,a1,66c <NESTED_COUNT+0x52c>
  cc:	00012706 	0x12706
  d0:	b43a0400 	sdr	k0,1024(at)
  d4:	02000000 	0x2000000
  d8:	57060010 	bnel	t8,a2,11c <USER+0x78>
  dc:	04000002 	bltz	zero,e8 <USER+0x44>
  e0:	00027b3b 	dsra	t7,v0,0xc
  e4:	08100200 	j	400800 <NESTED_COUNT+0x4006c0>
  e8:	00001006 	srlv	v0,zero,zero
  ec:	7b3c0400 	0x7b3c0400
  f0:	03000002 	0x3000002
  f4:	0601a410 	bgez	s0,fffe9138 <__bbs_end+0x5f7d1290>
  f8:	00000097 	0x97
  fc:	007e3e04 	0x7e3e04
 100:	10030000 	beq	zero,v1,104 <USER+0x60>
 104:	d80602c0 	ldc2	$6,704(zero)
 108:	04000001 	bltz	zero,110 <USER+0x6c>
 10c:	00004f40 	sll	t1,zero,0x1d
 110:	c4100300 	lwc1	$f16,768(zero)
 114:	69700902 	ldl	s0,2306(t3)
 118:	41040064 	0x41040064
 11c:	00000073 	tltu	zero,zero,0x1
 120:	02c81003 	0x2c81003
 124:	0002d106 	0x2d106
 128:	9b420400 	lwr	v0,1024(k0)
 12c:	03000001 	0x3000001
 130:	0602cc10 	bltzl	s0,ffff3174 <__bbs_end+0x5f7db2cc>
 134:	000007cf 	0x7cf
 138:	01d84304 	0x1d84304
 13c:	10030000 	beq	zero,v1,140 <NESTED_COUNT>
 140:	fa0602d0 	sdc2	$6,720(s0)
 144:	04000001 	bltz	zero,14c <NESTED_COUNT+0xc>
 148:	00004f44 	0x4f44
 14c:	d4100300 	ldc1	$f16,768(zero)
 150:	04e70602 	0x4e70602
 154:	45040000 	0x45040000
 158:	00000061 	0x61
 15c:	02d81003 	0x2d81003
 160:	00048606 	0x48606
 164:	a6470400 	sh	a3,1024(s2)
 168:	03000001 	0x3000001
 16c:	0602e010 	bltzl	s0,ffff81b0 <__bbs_end+0x5f7e0308>
 170:	0000014e 	0x14e
 174:	02864804 	sllv	t1,a2,s4
 178:	10030000 	beq	zero,v1,17c <NESTED_COUNT+0x3c>
 17c:	020002e4 	0x20002e4
 180:	0000018a 	0x18a
 184:	9b0a0704 	lwr	t2,1796(t8)
 188:	04000001 	bltz	zero,190 <NESTED_COUNT+0x50>
 18c:	e40b0d04 	swc1	$f11,3332(zero)
 190:	00000001 	0x1
 194:	0002c40b 	0x2c40b
 198:	03000100 	0x3000100
 19c:	00000206 	0x206
 1a0:	01861004 	sllv	v0,a2,t4
 1a4:	18030000 	0x18030000
 1a8:	04000000 	bltz	zero,1ac <NESTED_COUNT+0x6c>
 1ac:	00007e12 	0x7e12
 1b0:	01d80a00 	0x1d80a00
 1b4:	04040000 	0x4040000
 1b8:	00370b14 	0x370b14
 1bc:	0b000000 	j	c000000 <NESTED_COUNT+0xbfffec0>
 1c0:	00000274 	teq	zero,zero,0x9
 1c4:	00f40b01 	0xf40b01
 1c8:	0b020000 	j	c080000 <NESTED_COUNT+0xc07fec0>
 1cc:	000001be 	dsrl32	zero,zero,0x6
 1d0:	002e0b03 	0x2e0b03
 1d4:	00040000 	sll	zero,a0,0x0
 1d8:	00016a03 	sra	t5,at,0x8
 1dc:	b11a0400 	sdl	k0,1024(t0)
 1e0:	05000001 	bltz	t0,1e8 <NESTED_COUNT+0xa8>
 1e4:	00000264 	0x264
 1e8:	000000a4 	0xa4
 1ec:	0628049c 	tgei	s1,1180
 1f0:	0000028c 	syscall	0xa
 1f4:	02642a04 	0x2642a04
 1f8:	10020000 	beq	zero,v0,1fc <NESTED_COUNT+0xbc>
 1fc:	07cb0600 	tltiu	s8,1536
 200:	2d040000 	sltiu	a0,t0,0
 204:	0000004f 	0x4f
 208:	01801003 	0x1801003
 20c:	00696809 	0x696809
 210:	004f2e04 	0x4f2e04
 214:	10030000 	beq	zero,v1,218 <NESTED_COUNT+0xd8>
 218:	6c090184 	ldr	t1,388(zero)
 21c:	2f04006f 	sltiu	a0,t8,111
 220:	0000004f 	0x4f
 224:	01881003 	0x1881003
 228:	00026106 	0x26106
 22c:	4f300400 	c3	0x1300400
 230:	03000000 	0x3000000
 234:	06018c10 	bgez	s0,fffe3278 <__bbs_end+0x5f7cb3d0>
 238:	000002e0 	0x2e0
 23c:	004f3104 	0x4f3104
 240:	10030000 	beq	zero,v1,244 <NESTED_COUNT+0x104>
 244:	78060190 	0x78060190
 248:	04000001 	bltz	zero,250 <NESTED_COUNT+0x110>
 24c:	00004f32 	tlt	zero,zero,0x13c
 250:	94100300 	lhu	s0,768(zero)
 254:	63700901 	daddi	s0,k1,2305
 258:	4f330400 	c3	0x1330400
 25c:	03000000 	0x3000000
 260:	00019810 	0x19810
 264:	0002740c 	syscall	0x9d0
 268:	00004f00 	sll	t1,zero,0x1c
 26c:	02740d00 	0x2740d00
 270:	001f0000 	sll	zero,ra,0x0
 274:	00018a02 	srl	s1,at,0x8
 278:	03070400 	0x3070400
 27c:	000000e8 	0xe8
 280:	01e33404 	0x1e33404
 284:	040e0000 	tnei	zero,0
 288:	00013f03 	sra	a3,at,0x1c
 28c:	bf4d0400 	cache	0xd,1024(k0)
 290:	0f000000 	jal	c000000 <NESTED_COUNT+0xbfffec0>
 294:	000002e9 	0x2e9
 298:	00075f01 	0x75f01
 29c:	012f0100 	0x12f0100
 2a0:	a0803120 	sb	zero,12576(a0)
 2a4:	a08031f8 	sb	zero,12792(a0)
 2a8:	0000073c 	dsll32	zero,zero,0x1c
 2ac:	69106d01 	ldl	s0,27905(t0)
 2b0:	7e300100 	0x7e300100
 2b4:	01000000 	0x1000000
 2b8:	07cb1153 	tltiu	s8,4435
 2bc:	3f010000 	0x3f010000
 2c0:	0000004f 	0x4f
 2c4:	d9125201 	ldc2	$18,20993(t0)
 2c8:	01000002 	0x1000002
 2cc:	000007c7 	0x7c7
 2d0:	007e3f01 	0x7e3f01
 2d4:	13010000 	beq	t8,at,2d8 <NESTED_COUNT+0x198>
 2d8:	48011400 	0x48011400
 2dc:	01000007 	srav	zero,zero,t0
 2e0:	00007e47 	0x7e47
 2e4:	00130100 	sll	zero,s3,0x4
 2e8:	031f0f00 	0x31f0f00
 2ec:	6f010000 	ldr	at,0(t8)
 2f0:	01000007 	srav	zero,zero,t0
 2f4:	31f8014b 	andi	t8,t7,0x14b
 2f8:	3200a080 	andi	zero,s0,0xa080
 2fc:	075ca080 	0x75ca080
 300:	6d010000 	ldr	at,0(t0)
 304:	0007bd15 	0x7bd15
 308:	7e4a0100 	0x7e4a0100
 30c:	01000000 	0x1000000
 310:	07e91554 	tgeiu	ra,5460
 314:	4a010000 	c2	0x10000
 318:	0000007e 	dsrl32	zero,zero,0x1
 31c:	16005501 	bnez	s0,15724 <NESTED_COUNT+0x155e4>
 320:	00000349 	0x349
 324:	0007a901 	0x7a901
 328:	00500100 	0x500100
 32c:	70a08032 	0x70a08032
 330:	6ca08032 	ldr	zero,-32718(a1)
 334:	01000007 	srav	zero,zero,t0
 338:	5c01146d 	0x5c01146d
 33c:	01000004 	sllv	zero,zero,t0
 340:	00007e56 	0x7e56
 344:	00130100 	sll	zero,s3,0x4
 348:	03a50f00 	0x3a50f00
 34c:	96010000 	lhu	at,0(s0)
 350:	01000007 	srav	zero,zero,t0
 354:	3270015b 	andi	s0,s3,0x15b
 358:	3440a080 	ori	zero,v0,0xa080
 35c:	0784a080 	0x784a080
 360:	6d010000 	ldr	at,0(t0)
 364:	006e6617 	0x6e6617
 368:	007e5a01 	0x7e5a01
 36c:	60010000 	daddi	at,zero,0
 370:	0007f215 	0x7f215
 374:	7e5a0100 	0x7e5a0100
 378:	01000000 	0x1000000
 37c:	07801562 	bltz	gp,5908 <NESTED_COUNT+0x57c8>
 380:	5a010000 	0x5a010000
 384:	0000007e 	dsrl32	zero,zero,0x1
 388:	85156301 	lh	s5,25345(t0)
 38c:	01000007 	srav	zero,zero,t0
 390:	00007e5a 	0x7e5a
 394:	11640100 	beq	t3,a0,798 <NESTED_COUNT+0x658>
 398:	00000757 	0x757
 39c:	007e5c01 	0x7e5c01
 3a0:	60010000 	daddi	at,zero,0
 3a4:	03b01800 	0x3b01800
 3a8:	007e0000 	0x7e0000
 3ac:	00130000 	sll	zero,s3,0x0
 3b0:	0003c00c 	syscall	0xf00
 3b4:	0003c000 	sll	t8,v1,0x0
 3b8:	02740d00 	0x2740d00
 3bc:	00100000 	sll	zero,s0,0x0
 3c0:	03a50407 	0x3a50407
 3c4:	10190000 	beq	zero,t9,3c8 <NESTED_COUNT+0x288>
 3c8:	03000001 	0x3000001
 3cc:	0003b00b 	0x3b00b
 3d0:	19010100 	0x19010100
 3d4:	00000460 	0x460
 3d8:	03e05104 	0x3e05104
 3dc:	01010000 	0x1010000
 3e0:	02880407 	0x2880407
 3e4:	42190000 	c0	0x190000
 3e8:	04000004 	bltz	zero,3fc <NESTED_COUNT+0x2bc>
 3ec:	0003f352 	0x3f352
 3f0:	1a010100 	0x1a010100
 3f4:	00000061 	0x61
 3f8:	0007d61b 	0x7d61b
 3fc:	64230100 	daddiu	v1,at,256
 400:	01000002 	0x1000002
 404:	f4180305 	sdc1	$f24,773(zero)
 408:	b31ba080 	sdl	k1,-24448(t8)
 40c:	01000007 	srav	zero,zero,t0
 410:	00007e4e 	0x7e4e
 414:	03050100 	0x3050100
 418:	a0803cc0 	sb	zero,15552(a0)
	...
Disassembly of section .debug_line.30:

00000000 <.debug_line.30>:
   0:	000000b6 	tne	zero,zero,0x2
   4:	005e0002 	0x5e0002
   8:	01010000 	0x1010000
   c:	000d0efb 	dsra	at,t5,0x1b
  10:	01010101 	0x1010101
  14:	01000000 	0x1000000
  18:	00010000 	sll	zero,at,0x0
  1c:	65746e69 	daddiu	s4,t3,28265
  20:	70757272 	0x70757272
  24:	00632e74 	teq	v1,v1,0xb9
  28:	63000000 	daddi	zero,t8,0
  2c:	6f6d6d6f 	ldr	t5,28015(k1)
  30:	00682e6e 	0x682e6e
  34:	6b000000 	ldl	zero,0(t8)
  38:	656e7265 	daddiu	t6,t3,29285
  3c:	00682e6c 	0x682e6c
  40:	73000000 	0x73000000
  44:	64656863 	daddiu	a1,v1,26723
  48:	72656c75 	0x72656c75
  4c:	0000682e 	dneg	t5,zero
  50:	79730000 	0x79730000
  54:	682e636e 	ldl	t6,25454(at)
  58:	00000000 	nop
  5c:	75657571 	jalx	595d5c4 <NESTED_COUNT+0x595d484>
  60:	00682e65 	0x682e65
  64:	00000000 	nop
  68:	20020500 	addi	v0,zero,1280
  6c:	03a08031 	tgeu	sp,zero,0x200
  70:	2802012e 	slti	v0,zero,302
  74:	81bd4b14 	lb	sp,19220(t5)
  78:	4d4b7e4e 	0x4d4b7e4e
  7c:	4d468349 	0x4d468349
  80:	bb3e0883 	swr	s8,2179(t9)
  84:	86bb3f08 	lh	k1,16136(s5)
  88:	87b0084e 	lh	s0,2126(sp)
  8c:	844b494b 	lh	t3,18763(v0)
  90:	8448bc48 	lh	t0,-17336(v0)
  94:	7f86ba84 	0x7f86ba84
  98:	85498483 	lh	t1,-31613(t2)
  9c:	3f087f85 	0x3f087f85
  a0:	8402bd47 	lh	v0,-17081(zero)
  a4:	bb831401 	swr	v1,5121(gp)
  a8:	028a4a85 	0x28a4a85
  ac:	bc831824 	cache	0x3,6180(a0)
  b0:	834c4949 	lb	t4,18761(k0)
  b4:	0001a402 	srl	s4,at,0x10
  b8:	Address 0x00000000000000b8 is out of bounds.

Disassembly of section .debug_line.31:

00000000 <.debug_line.31>:
   0:	0000003b 	dsra	zero,zero,0x0
   4:	00200002 	0x200002
   8:	01010000 	0x1010000
   c:	000d0efb 	dsra	at,t5,0x1b
  10:	01010101 	0x1010101
  14:	01000000 	0x1000000
  18:	00010000 	sll	zero,at,0x0
  1c:	63737973 	daddi	s3,k1,31091
  20:	2e6c6c61 	sltiu	t4,s3,27745
  24:	00000053 	0x53
  28:	05000000 	bltz	t0,2c <KERNEL+0x24>
  2c:	80344002 	lb	s4,16386(at)
  30:	4b4b15a0 	c2	0x14b15a0
  34:	4b4b4b4b 	c2	0x14b4b4b
  38:	08024c4c 	j	93130 <NESTED_COUNT+0x92ff0>
  3c:	Address 0x000000000000003c is out of bounds.

Disassembly of section .debug_info.32:

00000000 <.debug_info.32>:
   0:	0000004d 	break	0x0,0x1
   4:	00000002 	srl	zero,zero,0x0
   8:	01040000 	0x1040000
   c:	00000000 	nop
  10:	a0803440 	sb	zero,13376(a0)
  14:	a0803468 	sb	zero,13416(a0)
  18:	63737973 	daddi	s3,k1,31091
  1c:	2e6c6c61 	sltiu	t4,s3,27745
  20:	682f0053 	ldl	t7,83(at)
  24:	2f656d6f 	sltiu	a1,k1,28015
  28:	2f757473 	sltiu	s5,k1,29811
  2c:	702f3470 	0x702f3470
  30:	656a6f72 	daddiu	t2,t3,28530
  34:	5f347463 	0x5f347463
  38:	72617473 	0x72617473
  3c:	6f635f74 	ldr	v1,24436(k1)
  40:	47006564 	c1	0x1006564
  44:	4120554e 	0x4120554e
  48:	2e322053 	sltiu	s2,s1,8275
  4c:	01003731 	tgeu	t0,zero,0xdc
  50:	Address 0x0000000000000050 is out of bounds.

Disassembly of section .debug_abbrev.33:

00000000 <.debug_abbrev.33>:
   0:	10001101 	b	4408 <NESTED_COUNT+0x42c8>
   4:	12011106 	beq	s0,at,4420 <NESTED_COUNT+0x42e0>
   8:	1b080301 	0x1b080301
   c:	13082508 	beq	t8,t0,9430 <NESTED_COUNT+0x92f0>
  10:	00000005 	0x5
Disassembly of section .debug_abbrev.34:

00000000 <.debug_abbrev.34>:
   0:	10011101 	beq	zero,at,4408 <NESTED_COUNT+0x42c8>
   4:	11011206 	beq	t0,at,4820 <NESTED_COUNT+0x46e0>
   8:	130e2501 	beq	t8,t6,9410 <NESTED_COUNT+0x92d0>
   c:	1b0e030b 	0x1b0e030b
  10:	0200000e 	0x200000e
  14:	0e030024 	jal	80c0090 <NESTED_COUNT+0x80bff50>
  18:	0b3e0b0b 	j	cf82c2c <NESTED_COUNT+0xcf82aec>
  1c:	24030000 	li	v1,0
  20:	0b080300 	j	c200c00 <NESTED_COUNT+0xc200ac0>
  24:	000b3e0b 	0xb3e0b
  28:	01040400 	0x1040400
  2c:	0b0b1301 	j	c2c4c04 <NESTED_COUNT+0xc2c4ac4>
  30:	0b3b0b3a 	j	cec2ce8 <NESTED_COUNT+0xcec2ba8>
  34:	28050000 	slti	a1,zero,0
  38:	1c0e0300 	0x1c0e0300
  3c:	0600000d 	bltz	s0,74 <STACK>
  40:	0e030016 	jal	80c0058 <NESTED_COUNT+0x80bff18>
  44:	0b3b0b3a 	j	cec2ce8 <NESTED_COUNT+0xcec2ba8>
  48:	00001349 	0x1349
  4c:	0b000f07 	j	c003c1c <NESTED_COUNT+0xc003adc>
  50:	0013490b 	0x13490b
  54:	00150800 	sll	at,s5,0x0
  58:	00000c27 	0xc27
  5c:	01011309 	0x1011309
  60:	3a0b0b13 	xori	t3,s0,0xb13
  64:	000b3b0b 	0xb3b0b
  68:	000d0a00 	sll	at,t5,0x8
  6c:	0b3a0e03 	j	ce8380c <NESTED_COUNT+0xce836cc>
  70:	13490b3b 	beq	k0,t1,2d60 <NESTED_COUNT+0x2c20>
  74:	00000a38 	dsll	at,zero,0x8
  78:	4900260b 	bc2f	98a8 <NESTED_COUNT+0x9768>
  7c:	0c000013 	jal	4c <KERNEL+0x44>
  80:	1301012e 	beq	t8,at,53c <NESTED_COUNT+0x3fc>
  84:	0e030c3f 	jal	80c30fc <NESTED_COUNT+0x80c2fbc>
  88:	0b3b0b3a 	j	cec2ce8 <NESTED_COUNT+0xcec2ba8>
  8c:	13490c27 	beq	k0,t1,312c <NESTED_COUNT+0x2fec>
  90:	01120111 	0x1120111
  94:	40064081 	0x40064081
  98:	0d00000a 	jal	4000028 <NESTED_COUNT+0x3fffee8>
  9c:	0e030005 	jal	80c0014 <NESTED_COUNT+0x80bfed4>
  a0:	0b3b0b3a 	j	cec2ce8 <NESTED_COUNT+0xcec2ba8>
  a4:	0a021349 	j	8084d24 <NESTED_COUNT+0x8084be4>
  a8:	340e0000 	li	t6,0x0
  ac:	3a080300 	xori	t0,s0,0x300
  b0:	490b3b0b 	0x490b3b0b
  b4:	000a0213 	0xa0213
  b8:	010b0f00 	0x10b0f00
  bc:	00000655 	0x655
  c0:	03003410 	0x3003410
  c4:	3b0b3a0e 	xori	t3,t8,0x3a0e
  c8:	0213490b 	0x213490b
  cc:	1100000a 	beqz	t0,f8 <USER+0x54>
  d0:	0c3f012e 	jal	fc04b8 <NESTED_COUNT+0xfc0378>
  d4:	0b3a0e03 	j	ce8380c <NESTED_COUNT+0xce836cc>
  d8:	0c270b3b 	jal	9c2cec <NESTED_COUNT+0x9c2bac>
  dc:	01111349 	0x1111349
  e0:	40810112 	0x40810112
  e4:	000a4006 	srlv	t0,t2,zero
	...
Disassembly of section .debug_info.35:

00000000 <.debug_info.35>:
   0:	0000018a 	0x18a
   4:	00000002 	srl	zero,zero,0x0
   8:	01040000 	0x1040000
   c:	00000000 	nop
  10:	a0803588 	sb	zero,13704(a0)
  14:	a0803470 	sb	zero,13424(a0)
  18:	00000118 	0x118
  1c:	0007f701 	0x7f701
  20:	00021b00 	sll	v1,v0,0xc
  24:	015e0200 	0x15e0200
  28:	06010000 	bgez	s0,2c <KERNEL+0x24>
  2c:	00005402 	srl	t2,zero,0x10
  30:	02050200 	0x2050200
  34:	0000007c 	dsll32	zero,zero,0x1
  38:	77020504 	jalx	c081410 <NESTED_COUNT+0xc0812d0>
  3c:	08000000 	j	0 <KERNEL-0x8>
  40:	015c0205 	0x15c0205
  44:	08010000 	j	40000 <NESTED_COUNT+0x3fec0>
  48:	0001c502 	srl	t8,at,0x14
  4c:	02070200 	0x2070200
  50:	00000185 	0x185
  54:	80020704 	lb	v0,1796(zero)
  58:	08000001 	j	4 <KERNEL-0x4>
  5c:	6e690307 	ldr	t1,775(s3)
  60:	05040074 	0x5040074
  64:	00018a02 	srl	s1,at,0x8
  68:	04070400 	0x4070400
  6c:	00000080 	sll	zero,zero,0x2
  70:	050d0304 	0x50d0304
  74:	000001e4 	0x1e4
  78:	02c40500 	0x2c40500
  7c:	00010000 	sll	zero,at,0x0
  80:	00020606 	0x20606
  84:	6b100300 	ldl	s0,768(t8)
  88:	02000000 	0x2000000
  8c:	0000018a 	0x18a
  90:	85060704 	lh	a2,1796(t0)
  94:	02000000 	0x2000000
  98:	00009d0a 	0x9d0a
  9c:	a3040700 	sb	a0,1792(t8)
  a0:	08000000 	j	0 <KERNEL-0x8>
  a4:	00d80901 	0xd80901
  a8:	020c0000 	0x20c0000
  ac:	01450a11 	0x1450a11
  b0:	0e020000 	jal	8080000 <NESTED_COUNT+0x807fec0>
  b4:	000000d8 	0xd8
  b8:	0a001002 	j	8004008 <NESTED_COUNT+0x8003ec8>
  bc:	000000ae 	0xae
  c0:	00920f02 	0x920f02
  c4:	10020000 	beq	zero,v0,c8 <USER+0x24>
  c8:	02d10a04 	0x2d10a04
  cc:	10020000 	beq	zero,v0,d0 <USER+0x2c>
  d0:	00000080 	sll	zero,zero,0x2
  d4:	00081002 	srl	v0,t0,0x0
  d8:	00de0407 	0xde0407
  dc:	e30b0000 	sc	t3,0(t8)
  e0:	02000000 	0x2000000
  e4:	00000165 	0x165
  e8:	87060501 	lh	a2,1281(t8)
  ec:	02000002 	0x2000002
  f0:	0000a511 	0xa511
  f4:	01400c00 	0x1400c00
  f8:	01010000 	0x1010000
  fc:	01000008 	jr	t0
 100:	00920107 	0x920107
 104:	34700000 	ori	s0,v1,0x0
 108:	34fca080 	ori	gp,a3,0xa080
 10c:	07bca080 	0x7bca080
 110:	6d010000 	ldr	at,0(t0)
 114:	0001450d 	break	0x1,0x114
 118:	d8060100 	ldc2	$6,256(zero)
 11c:	01000000 	0x1000000
 120:	00690e62 	0x690e62
 124:	005d0801 	0x5d0801
 128:	61010000 	daddi	at,t0,0
 12c:	0000680f 	0x680f
 130:	090c1000 	j	4304000 <NESTED_COUNT+0x4303ec0>
 134:	0b010000 	j	c040000 <NESTED_COUNT+0xc03fec0>
 138:	00000140 	sll	zero,zero,0x5
 13c:	00006001 	0x6001
 140:	00ea0407 	0xea0407
 144:	01110000 	0x1110000
 148:	0000027a 	dsrl	zero,zero,0x9
 14c:	40011301 	0x40011301
 150:	fc000001 	sd	zero,1(zero)
 154:	88a08034 	lwl	zero,-32716(a1)
 158:	dca08035 	ld	zero,-32715(a1)
 15c:	01000007 	srav	zero,zero,t0
 160:	01450d6d 	0x1450d6d
 164:	12010000 	beq	s0,at,168 <NESTED_COUNT+0x28>
 168:	000000d8 	0xd8
 16c:	690e6201 	ldl	t6,25089(t0)
 170:	5d140100 	0x5d140100
 174:	01000000 	0x1000000
 178:	00800f61 	0x800f61
 17c:	0c100000 	jal	400000 <NESTED_COUNT+0x3ffec0>
 180:	01000009 	jalr	zero,t0
 184:	00014017 	dsrav	t0,at,zero
 188:	00600100 	0x600100
	...
Disassembly of section .debug_line.36:

00000000 <.debug_line.36>:
   0:	0000006b 	0x6b
   4:	003c0002 	0x3c0002
   8:	01010000 	0x1010000
   c:	000d0efb 	dsra	at,t5,0x1b
  10:	01010101 	0x1010101
  14:	01000000 	0x1000000
  18:	00010000 	sll	zero,at,0x0
  1c:	646d6172 	daddiu	t5,v1,24946
  20:	2e6b7369 	sltiu	t3,s3,29545
  24:	00000063 	0x63
  28:	6d617200 	ldr	at,29184(t3)
  2c:	6b736964 	ldl	s3,26980(k1)
  30:	0000682e 	dneg	t5,zero
  34:	63730000 	daddi	s3,k1,0
  38:	75646568 	jalx	59195a0 <NESTED_COUNT+0x5919460>
  3c:	2e72656c 	sltiu	s2,s3,25964
  40:	00000068 	0x68
  44:	05000000 	bltz	t0,48 <KERNEL+0x40>
  48:	80347002 	lb	s4,28674(at)
  4c:	3c0818a0 	lui	t0,0x18a0
  50:	8283844c 	lb	v1,-31668(s4)
  54:	48bc7f82 	0x48bc7f82
  58:	084bf189 	j	12fc624 <NESTED_COUNT+0x12fc4e4>
  5c:	4c3c08e7 	0x4c3c08e7
  60:	82828384 	lb	v0,-31868(s4)
  64:	8948bc7f 	lwl	t0,-17281(t2)
  68:	20024bf1 	addi	v0,zero,19441
  6c:	Address 0x000000000000006c is out of bounds.

Disassembly of section .debug_abbrev.37:

00000000 <.debug_abbrev.37>:
   0:	10011101 	beq	zero,at,4408 <NESTED_COUNT+0x42c8>
   4:	11011206 	beq	t0,at,4820 <NESTED_COUNT+0x46e0>
   8:	130e2501 	beq	t8,t6,9410 <NESTED_COUNT+0x92d0>
   c:	1b0e030b 	0x1b0e030b
  10:	0200000e 	0x200000e
  14:	0e030024 	jal	80c0090 <NESTED_COUNT+0x80bff50>
  18:	0b3e0b0b 	j	cf82c2c <NESTED_COUNT+0xcf82aec>
  1c:	16030000 	bne	s0,v1,20 <KERNEL+0x18>
  20:	3a0e0300 	xori	t6,s0,0x300
  24:	490b3b0b 	0x490b3b0b
  28:	04000013 	bltz	zero,78 <STACK+0x4>
  2c:	08030024 	j	c0090 <NESTED_COUNT+0xbff50>
  30:	0b3e0b0b 	j	cf82c2c <NESTED_COUNT+0xcf82aec>
  34:	13050000 	beq	t8,a1,38 <KERNEL+0x30>
  38:	03130101 	0x3130101
  3c:	3a0b0b0e 	xori	t3,s0,0xb0e
  40:	000b3b0b 	0xb3b0b
  44:	000d0600 	sll	zero,t5,0x18
  48:	0b3a0e03 	j	ce8380c <NESTED_COUNT+0xce836cc>
  4c:	13490b3b 	beq	k0,t1,2d3c <NESTED_COUNT+0x2bfc>
  50:	00000a38 	dsll	at,zero,0x8
  54:	0b000f07 	j	c003c1c <NESTED_COUNT+0xc003adc>
  58:	0013490b 	0x13490b
  5c:	01040800 	0x1040800
  60:	0b0b1301 	j	c2c4c04 <NESTED_COUNT+0xc2c4ac4>
  64:	0b3b0b3a 	j	cec2ce8 <NESTED_COUNT+0xcec2ba8>
  68:	28090000 	slti	t1,zero,0
  6c:	1c0e0300 	0x1c0e0300
  70:	0a00000d 	j	8000034 <NESTED_COUNT+0x7fffef4>
  74:	0803000d 	j	c0034 <NESTED_COUNT+0xbfef4>
  78:	0b3b0b3a 	j	cec2ce8 <NESTED_COUNT+0xcec2ba8>
  7c:	0a381349 	j	8e04d24 <NESTED_COUNT+0x8e04be4>
  80:	010b0000 	0x10b0000
  84:	49130101 	0x49130101
  88:	0c000013 	jal	4c <KERNEL+0x44>
  8c:	13490021 	beq	k0,t1,114 <USER+0x70>
  90:	00000b2f 	0xb2f
  94:	0101130d 	break	0x101,0x4c
  98:	0b080313 	j	c200c4c <NESTED_COUNT+0xc200b0c>
  9c:	3b0b3a05 	xori	t3,t8,0x3a05
  a0:	0e00000b 	jal	800002c <NESTED_COUNT+0x7fffeec>
  a4:	0b0b000f 	j	c2c003c <NESTED_COUNT+0xc2bfefc>
  a8:	130f0000 	beq	t8,t7,ac <USER+0x8>
  ac:	0b130101 	j	c4c0404 <NESTED_COUNT+0xc4c02c4>
  b0:	3b0b3a0b 	xori	t3,t8,0x3a0b
  b4:	1000000b 	b	e4 <USER+0x40>
  b8:	13010113 	beq	t8,at,508 <NESTED_COUNT+0x3c8>
  bc:	0b3a050b 	j	ce8142c <NESTED_COUNT+0xce812ec>
  c0:	00000b3b 	dsra	at,zero,0xc
  c4:	3f002e11 	0x3f002e11
  c8:	3a0e030c 	xori	t6,s0,0x30c
  cc:	270b3b0b 	addiu	t3,t8,15115
  d0:	1201110c 	beq	s0,at,4504 <NESTED_COUNT+0x43c4>
  d4:	06408101 	bltz	s2,fffe04dc <__bbs_end+0x5f7c8634>
  d8:	00000a40 	sll	at,zero,0x9
  dc:	01012e12 	0x1012e12
  e0:	030c3f13 	0x30c3f13
  e4:	3b0b3a0e 	xori	t3,t8,0x3a0e
  e8:	490c270b 	0x490c270b
  ec:	12011113 	beq	s0,at,453c <NESTED_COUNT+0x43fc>
  f0:	06408101 	bltz	s2,fffe04f8 <__bbs_end+0x5f7c8650>
  f4:	00000a40 	sll	at,zero,0x9
  f8:	03000513 	0x3000513
  fc:	3b0b3a0e 	xori	t3,t8,0x3a0e
 100:	0213490b 	0x213490b
 104:	1400000a 	bnez	zero,130 <USER+0x8c>
 108:	13490026 	beq	k0,t1,1a4 <NESTED_COUNT+0x64>
 10c:	2e150000 	sltiu	s5,s0,0
 110:	3f130101 	0x3f130101
 114:	3a0e030c 	xori	t6,s0,0x30c
 118:	270b3b0b 	addiu	t3,t8,15115
 11c:	1201110c 	beq	s0,at,4550 <NESTED_COUNT+0x4410>
 120:	06408101 	bltz	s2,fffe0528 <__bbs_end+0x5f7c8680>
 124:	00000a40 	sll	at,zero,0x9
 128:	03000516 	0x3000516
 12c:	3b0b3a08 	xori	t3,t8,0x3a08
 130:	0213490b 	0x213490b
 134:	1700000a 	bnez	t8,160 <NESTED_COUNT+0x20>
 138:	0e030034 	jal	80c00d0 <NESTED_COUNT+0x80bff90>
 13c:	0b3b0b3a 	j	cec2ce8 <NESTED_COUNT+0xcec2ba8>
 140:	0c3f1349 	jal	fc4d24 <NESTED_COUNT+0xfc4be4>
 144:	00000a02 	srl	at,zero,0x8
 148:	03003418 	0x3003418
 14c:	3b0b3a0e 	xori	t3,t8,0x3a0e
 150:	0213490b 	0x213490b
 154:	0000000a 	0xa
Disassembly of section .debug_info.38:

00000000 <.debug_info.38>:
   0:	0000053e 	dsrl32	zero,zero,0x14
   4:	00000002 	srl	zero,zero,0x0
   8:	01040000 	0x1040000
   c:	00000000 	nop
  10:	a08035c0 	sb	zero,13760(a0)
  14:	a0803590 	sb	zero,13712(a0)
  18:	00000118 	0x118
  1c:	00083e01 	0x83e01
  20:	00021b00 	sll	v1,v0,0xc
  24:	015e0200 	0x15e0200
  28:	06010000 	bgez	s0,2c <KERNEL+0x24>
  2c:	00005402 	srl	t2,zero,0x10
  30:	02050200 	0x2050200
  34:	0000007c 	dsll32	zero,zero,0x1
  38:	77020504 	jalx	c081410 <NESTED_COUNT+0xc0812d0>
  3c:	08000000 	j	0 <KERNEL-0x8>
  40:	015c0205 	0x15c0205
  44:	08010000 	j	40000 <NESTED_COUNT+0x3fec0>
  48:	0001c502 	srl	t8,at,0x14
  4c:	03070200 	0x3070200
  50:	00000197 	0x197
  54:	005a4402 	0x5a4402
  58:	85020000 	lh	v0,0(t0)
  5c:	04000001 	bltz	zero,64 <KERNEL+0x5c>
  60:	004b0307 	0x4b0307
  64:	45020000 	bc1fl	68 <KERNEL+0x60>
  68:	0000006c 	0x6c
  6c:	00018002 	srl	s0,at,0x0
  70:	03070800 	0x3070800
  74:	0000026e 	0x26e
  78:	007e4702 	0x7e4702
  7c:	69040000 	ldl	a0,0(t0)
  80:	0400746e 	bltz	zero,1d23c <NESTED_COUNT+0x1d0fc>
  84:	08a80305 	j	2a00c14 <NESTED_COUNT+0x2a00ad4>
  88:	48020000 	mfc2	v0,$0
  8c:	0000007e 	dsrl32	zero,zero,0x1
  90:	0000b905 	0xb905
  94:	00012700 	sll	a0,at,0x1c
  98:	08040800 	j	102000 <NESTED_COUNT+0x101ec0>
  9c:	00017306 	0x17306
  a0:	b9090400 	swr	t1,1024(t0)
  a4:	02000000 	0x2000000
  a8:	db060010 	ldc2	$6,16(t8)
  ac:	04000002 	bltz	zero,b8 <USER+0x14>
  b0:	0000b909 	0xb909
  b4:	04100200 	bltzal	zero,8b8 <NESTED_COUNT+0x778>
  b8:	90040700 	lbu	a0,1792(zero)
  bc:	03000000 	0x3000000
  c0:	000001a0 	0x1a0
  c4:	00900a04 	0x900a04
  c8:	df080000 	ld	t0,0(t8)
  cc:	04000000 	bltz	zero,d0 <USER+0x2c>
  d0:	e4090d05 	swc1	$f9,3333(zero)
  d4:	00000001 	0x1
  d8:	0002c409 	0x2c409
  dc:	03000100 	0x3000100
  e0:	00000206 	0x206
  e4:	00ca1005 	0xca1005
  e8:	18030000 	0x18030000
  ec:	05000000 	bltz	t0,f0 <USER+0x4c>
  f0:	00007e12 	0x7e12
  f4:	011c0800 	0x11c0800
  f8:	05040000 	0x5040000
  fc:	00370914 	0x370914
 100:	09000000 	j	4000000 <NESTED_COUNT+0x3fffec0>
 104:	00000274 	teq	zero,zero,0x9
 108:	00f40901 	0xf40901
 10c:	09020000 	j	4080000 <NESTED_COUNT+0x407fec0>
 110:	000001be 	dsrl32	zero,zero,0x6
 114:	002e0903 	0x2e0903
 118:	00040000 	sll	zero,a0,0x0
 11c:	00016a03 	sra	t5,at,0x8
 120:	f51a0500 	sdc1	$f26,1280(t0)
 124:	05000000 	bltz	t0,128 <USER+0x84>
 128:	000001a8 	0x1a8
 12c:	000000a4 	0xa4
 130:	0628059c 	tgei	s1,1436
 134:	0000028c 	syscall	0xa
 138:	01a82a05 	0x1a82a05
 13c:	10020000 	beq	zero,v0,140 <NESTED_COUNT>
 140:	07cb0600 	tltiu	s8,1536
 144:	2d050000 	sltiu	a1,t0,0
 148:	0000004f 	0x4f
 14c:	01801003 	0x1801003
 150:	0069680a 	0x69680a
 154:	004f2e05 	0x4f2e05
 158:	10030000 	beq	zero,v1,15c <NESTED_COUNT+0x1c>
 15c:	6c0a0184 	ldr	t2,388(zero)
 160:	2f05006f 	sltiu	a1,t8,111
 164:	0000004f 	0x4f
 168:	01881003 	0x1881003
 16c:	00026106 	0x26106
 170:	4f300500 	c3	0x1300500
 174:	03000000 	0x3000000
 178:	06018c10 	bgez	s0,fffe31bc <__bbs_end+0x5f7cb314>
 17c:	000002e0 	0x2e0
 180:	004f3105 	0x4f3105
 184:	10030000 	beq	zero,v1,188 <NESTED_COUNT+0x48>
 188:	78060190 	0x78060190
 18c:	05000001 	bltz	t0,194 <NESTED_COUNT+0x54>
 190:	00004f32 	tlt	zero,zero,0x13c
 194:	94100300 	lhu	s0,768(zero)
 198:	63700a01 	daddi	s0,k1,2561
 19c:	4f330500 	c3	0x1330500
 1a0:	03000000 	0x3000000
 1a4:	00019810 	0x19810
 1a8:	0001b80b 	0x1b80b
 1ac:	00004f00 	sll	t1,zero,0x1c
 1b0:	01b80c00 	0x1b80c00
 1b4:	001f0000 	sll	zero,ra,0x0
 1b8:	00018a02 	srl	s1,at,0x8
 1bc:	03070400 	0x3070400
 1c0:	000000e8 	0xe8
 1c4:	01273405 	0x1273405
 1c8:	8a0d0000 	lwl	t5,0(s0)
 1cc:	70000002 	0x70000002
 1d0:	68006263 	ldl	zero,25187(zero)
 1d4:	06370501 	0x6370501
 1d8:	00000127 	0x127
 1dc:	00bf3a05 	0xbf3a05
 1e0:	10020000 	beq	zero,v0,1e4 <NESTED_COUNT+0xa4>
 1e4:	02570600 	0x2570600
 1e8:	3b050000 	xori	a1,t8,0x0
 1ec:	000001bf 	dsra32	zero,zero,0x6
 1f0:	06081002 	tgei	s0,4098
 1f4:	00000010 	mfhi	zero
 1f8:	01bf3c05 	0x1bf3c05
 1fc:	10030000 	beq	zero,v1,200 <NESTED_COUNT+0xc0>
 200:	970601a4 	lhu	a2,420(t8)
 204:	05000000 	bltz	t0,208 <NESTED_COUNT+0xc8>
 208:	00007e3e 	dsrl32	t7,zero,0x18
 20c:	c0100300 	ll	s0,768(zero)
 210:	01d80602 	0x1d80602
 214:	40050000 	mfc0	a1,$0
 218:	0000004f 	0x4f
 21c:	02c41003 	0x2c41003
 220:	6469700a 	daddiu	t1,v1,28682
 224:	73410500 	0x73410500
 228:	03000000 	0x3000000
 22c:	0602c810 	bltzl	s0,ffff2270 <__bbs_end+0x5f7da3c8>
 230:	000002d1 	0x2d1
 234:	00df4205 	0xdf4205
 238:	10030000 	beq	zero,v1,23c <NESTED_COUNT+0xfc>
 23c:	cf0602cc 	lwc3	$6,716(t8)
 240:	05000007 	bltz	t0,260 <NESTED_COUNT+0x120>
 244:	00011c43 	sra	v1,at,0x11
 248:	d0100300 	lld	s0,768(zero)
 24c:	01fa0602 	0x1fa0602
 250:	44050000 	mfc1	a1,$f0
 254:	0000004f 	0x4f
 258:	02d41003 	0x2d41003
 25c:	0004e706 	0x4e706
 260:	61450500 	daddi	a1,t2,1280
 264:	03000000 	0x3000000
 268:	0602d810 	bltzl	s0,ffff62ac <__bbs_end+0x5f7de404>
 26c:	00000486 	0x486
 270:	00ea4705 	0xea4705
 274:	10030000 	beq	zero,v1,278 <NESTED_COUNT+0x138>
 278:	4e0602e0 	c3	0x602e0
 27c:	05000001 	bltz	t0,284 <NESTED_COUNT+0x144>
 280:	00028a48 	0x28a48
 284:	e4100300 	swc1	$f16,768(zero)
 288:	040e0002 	tnei	zero,2
 28c:	0002a108 	0x2a108
 290:	0d030400 	jal	40c1000 <NESTED_COUNT+0x40c0ec0>
 294:	00060009 	0x60009
 298:	f5090000 	sdc1	$f9,0(t0)
 29c:	01000000 	0x1000000
 2a0:	02d80500 	0x2d80500
 2a4:	01570000 	0x1570000
 2a8:	03100000 	0x3100000
 2ac:	07cf060c 	0x7cf060c
 2b0:	10030000 	beq	zero,v1,2b4 <NESTED_COUNT+0x174>
 2b4:	0000028c 	syscall	0xa
 2b8:	06001002 	bltz	s0,42c4 <NESTED_COUNT+0x4184>
 2bc:	00000813 	0x813
 2c0:	00bf1103 	0xbf1103
 2c4:	10020000 	beq	zero,v0,2c8 <NESTED_COUNT+0x188>
 2c8:	05420604 	bltzl	t2,1adc <NESTED_COUNT+0x199c>
 2cc:	12030000 	beq	s0,v1,2d0 <NESTED_COUNT+0x190>
 2d0:	000002d8 	0x2d8
 2d4:	000c1002 	srl	v0,t4,0x0
 2d8:	01ca0407 	0x1ca0407
 2dc:	14030000 	bne	zero,v1,2e0 <NESTED_COUNT+0x1a0>
 2e0:	03000005 	0x3000005
 2e4:	0002a113 	0x2a113
 2e8:	018a0200 	0x18a0200
 2ec:	07040000 	0x7040000
 2f0:	0003070f 	0x3070f
 2f4:	0b012000 	j	c048000 <NESTED_COUNT+0xc047ec0>
 2f8:	67736d0a 	daddiu	s3,k1,27914
 2fc:	070a0100 	tlti	t8,256
 300:	02000003 	0x2000003
 304:	0b000010 	j	c000040 <NESTED_COUNT+0xbffff00>
 308:	00000317 	0x317
 30c:	00000317 	0x317
 310:	0001b80c 	syscall	0x6e0
 314:	02001f00 	0x2001f00
 318:	00000165 	0x165
 31c:	c4030601 	lwc1	$f3,1537(zero)
 320:	01000008 	jr	t0
 324:	0002f00b 	0x2f00b
 328:	03b61000 	0x3b61000
 32c:	04500000 	bltzal	v0,330 <NESTED_COUNT+0x1f0>
 330:	49061901 	0x49061901
 334:	01000001 	0x1000001
 338:	00030710 	0x30710
 33c:	00100200 	sll	zero,s0,0x8
 340:	786f620a 	0x786f620a
 344:	b6110100 	sdr	s1,256(s0)
 348:	02000003 	0x2000003
 34c:	34062010 	li	a2,0x2010
 350:	01000008 	jr	t0
 354:	00004f12 	0x4f12
 358:	a0100300 	sb	s0,768(zero)
 35c:	082a0608 	j	a81820 <NESTED_COUNT+0xa816e0>
 360:	13010000 	beq	t8,at,364 <NESTED_COUNT+0x224>
 364:	0000004f 	0x4f
 368:	08a41003 	j	290400c <NESTED_COUNT+0x2903ecc>
 36c:	01006c0a 	0x1006c0a
 370:	0002de14 	0x2de14
 374:	a8100300 	swl	s0,768(zero)
 378:	080e0608 	j	381820 <NESTED_COUNT+0x3816e0>
 37c:	15010000 	bne	t0,at,380 <NESTED_COUNT+0x240>
 380:	000000bf 	dsra32	zero,zero,0x2
 384:	08b81003 	j	2e0400c <NESTED_COUNT+0x2e03ecc>
 388:	00086d06 	0x86d06
 38c:	bf160100 	cache	0x16,256(t8)
 390:	03000000 	0x3000000
 394:	0608c010 	tgei	s0,-16368
 398:	0000087d 	0x87d
 39c:	007e1701 	0x7e1701
 3a0:	10030000 	beq	zero,v1,3a4 <NESTED_COUNT+0x264>
 3a4:	1e0608c8 	0x1e0608c8
 3a8:	01000008 	jr	t0
 3ac:	00007e18 	0x7e18
 3b0:	cc100300 	lwc3	$16,768(zero)
 3b4:	c60b0008 	lwc1	$f11,8(s0)
 3b8:	1e000003 	bgtz	s0,3c8 <NESTED_COUNT+0x288>
 3bc:	0c000003 	jal	c <KERNEL+0x4>
 3c0:	000001b8 	dsll	zero,zero,0x6
 3c4:	5203001f 	beql	s0,v1,444 <NESTED_COUNT+0x304>
 3c8:	01000008 	jr	t0
 3cc:	00032919 	0x32919
 3d0:	91011100 	lbu	at,4352(t0)
 3d4:	01000008 	jr	t0
 3d8:	35900125 	ori	s0,t4,0x125
 3dc:	3598a080 	ori	t8,t4,0xa080
 3e0:	080ca080 	j	328200 <NESTED_COUNT+0x3280c0>
 3e4:	6d010000 	ldr	at,0(t0)
 3e8:	00041512 	0x41512
 3ec:	08b70100 	j	2dc0400 <NESTED_COUNT+0x2dc02c0>
 3f0:	35010000 	ori	at,t0,0x0
 3f4:	00008501 	0x8501
 3f8:	80359800 	lb	s5,-26624(at)
 3fc:	8035a0a0 	lb	s5,-24416(at)
 400:	00081ca0 	0x81ca0
 404:	136d0100 	beq	k1,t5,808 <NESTED_COUNT+0x6c8>
 408:	00000149 	0x149
 40c:	04153401 	0x4153401
 410:	54010000 	bnel	zero,at,414 <NESTED_COUNT+0x2d4>
 414:	1b040700 	0x1b040700
 418:	14000004 	bnez	zero,42c <NESTED_COUNT+0x2ec>
 41c:	00000317 	0x317
 420:	00044915 	0x44915
 424:	08d30100 	j	34c0400 <NESTED_COUNT+0x34c02c0>
 428:	50010000 	beql	zero,at,42c <NESTED_COUNT+0x2ec>
 42c:	8035a001 	lb	s5,-24575(at)
 430:	8035a8a0 	lb	s5,-22368(at)
 434:	00082ca0 	0x82ca0
 438:	136d0100 	beq	k1,t5,83c <NESTED_COUNT+0x6fc>
 43c:	00000896 	0x896
 440:	00854f01 	0x854f01
 444:	54010000 	bnel	zero,at,448 <NESTED_COUNT+0x308>
 448:	04761200 	0x4761200
 44c:	5d010000 	0x5d010000
 450:	01000008 	jr	t0
 454:	007e0163 	0x7e0163
 458:	35a80000 	ori	t0,t5,0x0
 45c:	35b0a080 	ori	s0,t5,0xa080
 460:	083ca080 	j	f28200 <NESTED_COUNT+0xf280c0>
 464:	6d010000 	ldr	at,0(t0)
 468:	00089613 	0x89613
 46c:	85620100 	lh	v0,256(t3)
 470:	01000000 	0x1000000
 474:	b9150054 	swr	s5,84(t0)
 478:	01000004 	sllv	zero,zero,t0
 47c:	0000089b 	0x89b
 480:	b0017c01 	sdl	at,31745(zero)
 484:	b8a08035 	swr	zero,-32715(a1)
 488:	4ca08035 	0x4ca08035
 48c:	01000008 	jr	t0
 490:	0896136d 	j	2584db4 <NESTED_COUNT+0x2584c74>
 494:	7b010000 	0x7b010000
 498:	00000085 	0x85
 49c:	6d165401 	ldr	s6,21505(t0)
 4a0:	01006773 	tltu	t0,zero,0x19d
 4a4:	00028a7b 	dsra	s1,v0,0x9
 4a8:	13550100 	beq	k0,s5,8ac <NESTED_COUNT+0x76c>
 4ac:	000008cc 	syscall	0x23
 4b0:	007e7b01 	0x7e7b01
 4b4:	56010000 	bnel	s0,at,4b8 <NESTED_COUNT+0x378>
 4b8:	04fc1500 	0x4fc1500
 4bc:	45010000 	bc1t	4c0 <NESTED_COUNT+0x380>
 4c0:	01000008 	jr	t0
 4c4:	35b80194 	ori	t8,t5,0x194
 4c8:	35c0a080 	ori	zero,t6,0xa080
 4cc:	085ca080 	j	1728200 <NESTED_COUNT+0x17280c0>
 4d0:	6d010000 	ldr	at,0(t0)
 4d4:	00089613 	0x89613
 4d8:	85930100 	lh	s3,256(t4)
 4dc:	01000000 	0x1000000
 4e0:	736d1654 	0x736d1654
 4e4:	93010067 	lbu	at,103(t8)
 4e8:	0000028a 	0x28a
 4ec:	cc135501 	lwc3	$19,21761(zero)
 4f0:	01000008 	jr	t0
 4f4:	00007e93 	0x7e93
 4f8:	00560100 	0x560100
 4fc:	00050c0b 	0x50c0b
 500:	0003c600 	sll	t8,v1,0x18
 504:	01b80c00 	0x1b80c00
 508:	001f0000 	sll	zero,ra,0x0
 50c:	00088817 	dsrav	s1,t0,zero
 510:	fc1b0100 	sd	k1,256(zero)
 514:	01000004 	sllv	zero,zero,t0
 518:	f4980305 	sdc1	$f24,773(a0)
 51c:	e118a080 	sc	t8,-24448(t0)
 520:	01000008 	jr	t0
 524:	0004fc1d 	0x4fc1d
 528:	d0030500 	lld	v1,1280(zero)
 52c:	17a0803c 	bnez	sp,fffe0620 <__bbs_end+0x5f7c8778>
 530:	000008af 	0x8af
 534:	02de1e01 	0x2de1e01
 538:	05010000 	bgez	t0,53c <NESTED_COUNT+0x3fc>
 53c:	817e9803 	lb	s8,-26621(t3)
 540:	Address 0x0000000000000540 is out of bounds.

Disassembly of section .debug_line.39:

00000000 <.debug_line.39>:
   0:	0000006f 	0x6f
   4:	004d0002 	0x4d0002
   8:	01010000 	0x1010000
   c:	000d0efb 	dsra	at,t5,0x1b
  10:	01010101 	0x1010101
  14:	01000000 	0x1000000
  18:	00010000 	sll	zero,at,0x0
  1c:	786f626d 	0x786f626d
  20:	0000632e 	0x632e
  24:	6f630000 	ldr	v1,0(k1)
  28:	6e6f6d6d 	ldr	t7,28013(s3)
  2c:	0000682e 	dneg	t5,zero
  30:	79730000 	0x79730000
  34:	682e636e 	ldl	t6,25454(at)
  38:	00000000 	nop
  3c:	75657571 	jalx	595d5c4 <NESTED_COUNT+0x595d484>
  40:	00682e65 	0x682e65
  44:	73000000 	0x73000000
  48:	64656863 	daddiu	a1,v1,26723
  4c:	72656c75 	0x72656c75
  50:	0000682e 	dneg	t5,zero
  54:	00000000 	nop
  58:	35900205 	ori	s0,t4,0x205
  5c:	2403a080 	li	v1,-24448
  60:	82260301 	lb	a2,769(s1)
  64:	821c0388 	lb	gp,904(s0)
  68:	03821203 	0x3821203
  6c:	08028218 	j	a0860 <NESTED_COUNT+0xa0720>
  70:	Address 0x0000000000000070 is out of bounds.

Disassembly of section .debug_abbrev.40:

00000000 <.debug_abbrev.40>:
   0:	10011101 	beq	zero,at,4408 <NESTED_COUNT+0x42c8>
   4:	11011206 	beq	t0,at,4820 <NESTED_COUNT+0x46e0>
   8:	130e2501 	beq	t8,t6,9410 <NESTED_COUNT+0x92d0>
   c:	1b0e030b 	0x1b0e030b
  10:	0200000e 	0x200000e
  14:	0e030024 	jal	80c0090 <NESTED_COUNT+0x80bff50>
  18:	0b3e0b0b 	j	cf82c2c <NESTED_COUNT+0xcf82aec>
  1c:	24030000 	li	v1,0
  20:	0b080300 	j	c200c00 <NESTED_COUNT+0xc200ac0>
  24:	000b3e0b 	0xb3e0b
  28:	01040400 	0x1040400
  2c:	0b0b1301 	j	c2c4c04 <NESTED_COUNT+0xc2c4ac4>
  30:	0b3b0b3a 	j	cec2ce8 <NESTED_COUNT+0xcec2ba8>
  34:	28050000 	slti	a1,zero,0
  38:	1c0e0300 	0x1c0e0300
  3c:	0600000d 	bltz	s0,74 <STACK>
  40:	0e030016 	jal	80c0058 <NESTED_COUNT+0x80bff18>
  44:	0b3b0b3a 	j	cec2ce8 <NESTED_COUNT+0xcec2ba8>
  48:	00001349 	0x1349
  4c:	0b000f07 	j	c003c1c <NESTED_COUNT+0xc003adc>
  50:	0013490b 	0x13490b
  54:	00150800 	sll	at,s5,0x0
  58:	00000c27 	0xc27
  5c:	01011309 	0x1011309
  60:	3a0b0b13 	xori	t3,s0,0xb13
  64:	000b3b0b 	0xb3b0b
  68:	000d0a00 	sll	at,t5,0x8
  6c:	0b3a0e03 	j	ce8380c <NESTED_COUNT+0xce836cc>
  70:	13490b3b 	beq	k0,t1,2d60 <NESTED_COUNT+0x2c20>
  74:	00000a38 	dsll	at,zero,0x8
  78:	4900260b 	bc2f	98a8 <NESTED_COUNT+0x9768>
  7c:	0c000013 	jal	4c <KERNEL+0x44>
  80:	0c3f002e 	jal	fc00b8 <NESTED_COUNT+0xfbff78>
  84:	0b3a0e03 	j	ce8380c <NESTED_COUNT+0xce836cc>
  88:	13490b3b 	beq	k0,t1,2d78 <NESTED_COUNT+0x2c38>
  8c:	01120111 	0x1120111
  90:	40064081 	0x40064081
  94:	0d00000a 	jal	4000028 <NESTED_COUNT+0x3fffee8>
  98:	1301012e 	beq	t8,at,554 <NESTED_COUNT+0x414>
  9c:	0e030c3f 	jal	80c30fc <NESTED_COUNT+0x80c2fbc>
  a0:	0b3b0b3a 	j	cec2ce8 <NESTED_COUNT+0xcec2ba8>
  a4:	13490c27 	beq	k0,t1,3144 <NESTED_COUNT+0x3004>
  a8:	01120111 	0x1120111
  ac:	40064081 	0x40064081
  b0:	0e00000a 	jal	8000028 <NESTED_COUNT+0x7fffee8>
  b4:	08030005 	j	c0014 <NESTED_COUNT+0xbfed4>
  b8:	0b3b0b3a 	j	cec2ce8 <NESTED_COUNT+0xcec2ba8>
  bc:	0a021349 	j	8084d24 <NESTED_COUNT+0x8084be4>
  c0:	010f0000 	0x10f0000
  c4:	49130101 	0x49130101
  c8:	10000013 	b	118 <USER+0x74>
  cc:	13490021 	beq	k0,t1,154 <NESTED_COUNT+0x14>
  d0:	00000b2f 	0xb2f
  d4:	03003411 	0x3003411
  d8:	3b0b3a0e 	xori	t3,t8,0x3a0e
  dc:	0213490b 	0x213490b
  e0:	0000000a 	0xa
Disassembly of section .debug_info.41:

00000000 <.debug_info.41>:
   0:	0000015e 	0x15e
   4:	00000002 	srl	zero,zero,0x0
   8:	01040000 	0x1040000
   c:	00000000 	nop
  10:	a08035e4 	sb	zero,13796(a0)
  14:	a08035c0 	sb	zero,13760(a0)
  18:	00000118 	0x118
  1c:	0008ee01 	0x8ee01
  20:	00021b00 	sll	v1,v0,0xc
  24:	015e0200 	0x15e0200
  28:	06010000 	bgez	s0,2c <KERNEL+0x24>
  2c:	00005402 	srl	t2,zero,0x10
  30:	02050200 	0x2050200
  34:	0000007c 	dsll32	zero,zero,0x1
  38:	77020504 	jalx	c081410 <NESTED_COUNT+0xc0812d0>
  3c:	08000000 	j	0 <KERNEL-0x8>
  40:	015c0205 	0x15c0205
  44:	08010000 	j	40000 <NESTED_COUNT+0x3fec0>
  48:	0001c502 	srl	t8,at,0x14
  4c:	02070200 	0x2070200
  50:	00000185 	0x185
  54:	80020704 	lb	v0,1796(zero)
  58:	08000001 	j	4 <KERNEL-0x4>
  5c:	6e690307 	ldr	t1,775(s3)
  60:	05040074 	0x5040074
  64:	00018a02 	srl	s1,at,0x8
  68:	04070400 	0x4070400
  6c:	00000080 	sll	zero,zero,0x2
  70:	050d0304 	0x50d0304
  74:	000001e4 	0x1e4
  78:	02c40500 	0x2c40500
  7c:	00010000 	sll	zero,at,0x0
  80:	00020606 	0x20606
  84:	6b100300 	ldl	s0,768(t8)
  88:	02000000 	0x2000000
  8c:	0000018a 	0x18a
  90:	85060704 	lh	a2,1796(t0)
  94:	02000000 	0x2000000
  98:	00009d0a 	0x9d0a
  9c:	a3040700 	sb	a0,1792(t8)
  a0:	08000000 	j	0 <KERNEL-0x8>
  a4:	00d80901 	0xd80901
  a8:	020c0000 	0x20c0000
  ac:	01450a11 	0x1450a11
  b0:	0e020000 	jal	8080000 <NESTED_COUNT+0x807fec0>
  b4:	000000d8 	0xd8
  b8:	0a001002 	j	8004008 <NESTED_COUNT+0x8003ec8>
  bc:	000000ae 	0xae
  c0:	00920f02 	0x920f02
  c4:	10020000 	beq	zero,v0,c8 <USER+0x24>
  c8:	02d10a04 	0x2d10a04
  cc:	10020000 	beq	zero,v0,d0 <USER+0x2c>
  d0:	00000080 	sll	zero,zero,0x2
  d4:	00081002 	srl	v0,t0,0x0
  d8:	00de0407 	0xde0407
  dc:	e30b0000 	sc	t3,0(t8)
  e0:	02000000 	0x2000000
  e4:	00000165 	0x165
  e8:	87060501 	lh	a2,1281(t8)
  ec:	02000002 	0x2000002
  f0:	0000a511 	0xa511
  f4:	f6010c00 	sdc1	$f1,3072(s0)
  f8:	01000008 	jr	t0
  fc:	00005d14 	0x5d14
 100:	8035c000 	lb	s5,-16384(at)
 104:	8035c8a0 	lb	s5,-14176(at)
 108:	00087ca0 	0x87ca0
 10c:	0d6d0100 	jal	5b40400 <NESTED_COUNT+0x5b402c0>
 110:	0000013a 	dsrl	zero,zero,0x4
 114:	00090401 	0x90401
 118:	01190100 	0x1190100
 11c:	0000013a 	dsrl	zero,zero,0x4
 120:	a08035c8 	sb	zero,13768(a0)
 124:	a08035e4 	sb	zero,13796(a0)
 128:	0000088c 	syscall	0x22
 12c:	6e0e6d01 	ldr	t6,27905(s0)
 130:	5d180100 	0x5d180100
 134:	01000000 	0x1000000
 138:	04070054 	0x4070054
 13c:	000000ea 	0xea
 140:	0001500f 	0x1500f
 144:	0000ea00 	sll	sp,zero,0x8
 148:	008b1000 	0x8b1000
 14c:	00020000 	sll	zero,v0,0x0
 150:	0008fe11 	0x8fe11
 154:	400a0100 	0x400a0100
 158:	05000001 	bltz	t0,160 <NESTED_COUNT+0x20>
 15c:	803a9003 	lb	k0,-28669(at)
 160:	Address 0x0000000000000160 is out of bounds.

Disassembly of section .debug_line.42:

00000000 <.debug_line.42>:
   0:	00000053 	0x53
   4:	003a0002 	0x3a0002
   8:	01010000 	0x1010000
   c:	000d0efb 	dsra	at,t5,0x1b
  10:	01010101 	0x1010101
  14:	01000000 	0x1000000
  18:	00010000 	sll	zero,at,0x0
  1c:	656c6966 	daddiu	t4,t3,26982
  20:	00632e73 	tltu	v1,v1,0xb9
  24:	72000000 	0x72000000
  28:	69646d61 	ldl	a0,28001(t3)
  2c:	682e6b73 	ldl	t6,27507(at)
  30:	00000000 	nop
  34:	65686373 	daddiu	t0,t3,25459
  38:	656c7564 	daddiu	t4,t3,30052
  3c:	00682e72 	tlt	v1,t0,0xb9
  40:	00000000 	nop
  44:	c0020500 	ll	v0,1280(zero)
  48:	03a08035 	0x3a08035
  4c:	83860115 	lb	a2,277(gp)
  50:	0c024b49 	jal	92d24 <NESTED_COUNT+0x92be4>
  54:	Address 0x0000000000000054 is out of bounds.

Disassembly of section .debug_abbrev.43:

00000000 <.debug_abbrev.43>:
	...
Disassembly of section .debug_line.45:

00000000 <.debug_line.45>:
   0:	00000019 	multu	zero,zero
   4:	00130002 	srl	zero,s3,0x0
   8:	01010000 	0x1010000
   c:	000d0efb 	dsra	at,t5,0x1b
  10:	01010101 	0x1010101
  14:	01000000 	0x1000000
  18:	00010000 	sll	zero,at,0x0
	...
Disassembly of section .debug_abbrev.46:

00000000 <.debug_abbrev.46>:
	...
Disassembly of section .debug_line.48:

00000000 <.debug_line.48>:
   0:	00000019 	multu	zero,zero
   4:	00130002 	srl	zero,s3,0x0
   8:	01010000 	0x1010000
   c:	000d0efb 	dsra	at,t5,0x1b
  10:	01010101 	0x1010101
  14:	01000000 	0x1000000
  18:	00010000 	sll	zero,at,0x0
	...
Disassembly of section .debug_abbrev.49:

00000000 <.debug_abbrev.49>:
	...
Disassembly of section .debug_line.51:

00000000 <.debug_line.51>:
   0:	00000019 	multu	zero,zero
   4:	00130002 	srl	zero,s3,0x0
   8:	01010000 	0x1010000
   c:	000d0efb 	dsra	at,t5,0x1b
  10:	01010101 	0x1010101
  14:	01000000 	0x1000000
  18:	00010000 	sll	zero,at,0x0
	...
